(lp1
F0.5
aF0.5
aF0.5
aF0.5
aF0.5
aF0.5
aF0.5
aF0.5
aF0.39223227027636809
aF0.39223227027636809
aF0.58834840541455213
aF0.58834840541455213
aF0.457495710997814
aF0.457495710997814
aF0.60999428133041866
aF0.457495710997814
aF0.3779644730092272
aF0.7559289460184544
aF0.3779644730092272
aF0.3779644730092272
aF0.7559289460184544
aF0.3779644730092272
aF0.3779644730092272
aF0.3779644730092272
aF0.7745966692414834
aF0.2581988897471611
aF0.2581988897471611
aF0.5163977794943222
aF0.40613846605344767
aF0.40613846605344767
aF0.7107423155935334
aF0.40613846605344767
aF0.86602540378443871
aF0.28867513459481292
aF0.28867513459481292
aF0.28867513459481292
aF0.3779644730092272
aF0.3779644730092272
aF0.7559289460184544
aF0.3779644730092272
aF0
aF1
aF0
aF0
aF0.5
aF0.5
aF0.5
aF0.5
aF0.3692744729379982
aF0.4923659639173309
aF0.4923659639173309
aF0.61545745489666359
aF0.67990010365008491
aF0.48564293117863205
aF0.38851434494290565
aF0.38851434494290565
aF0.56568542494923801
aF0.42426406871192851
aF0.56568542494923801
aF0.42426406871192851
aF0.5
aF0.5
aF0.5
aF0.5
aF0.60999428133041866
aF0.457495710997814
aF0.457495710997814
aF0.457495710997814
aF0.5
aF0.5
aF0.5
aF0.5
aF0.39056673294247163
aF0.6509445549041194
aF0.39056673294247163
aF0.52075564392329554
aF0.3779644730092272
aF0.7559289460184544
aF0.3779644730092272
aF0.3779644730092272
aF0.457495710997814
aF0.457495710997814
aF0.457495710997814
aF0.60999428133041866
aF0.5
aF0.5
aF0.5
aF0.5
aF0.7559289460184544
aF0.3779644730092272
aF0.3779644730092272
aF0.3779644730092272
aF0.43643578047198478
aF0.43643578047198478
aF0.43643578047198478
aF0.6546536707079772
aF0.5
aF0.5
aF0.5
aF0.5
aF0.457495710997814
aF0.457495710997814
aF0.60999428133041866
aF0.457495710997814
aF0.60633906259083248
aF0.60633906259083248
aF0.36380343755449945
aF0.36380343755449945
aF0.63245553203367588
aF0.63245553203367588
aF0.31622776601683794
aF0.31622776601683794
aF0.43643578047198478
aF0.6546536707079772
aF0.43643578047198478
aF0.43643578047198478
aF0.6546536707079772
aF0.43643578047198478
aF0.43643578047198478
aF0.43643578047198478
aF0.5
aF0.5
aF0.5
aF0.5
aF0.5
aF0.5
aF0.5
aF0.5
aF0.457495710997814
aF0.60999428133041866
aF0.457495710997814
aF0.457495710997814
aF0.5
aF0.5
aF0.5
aF0.5
aF0.457495710997814
aF0.60999428133041866
aF0.457495710997814
aF0.457495710997814
aF0.55215763037423271
aF0.55215763037423271
aF0.44172610429938614
aF0.44172610429938614
aF0.43643578047198478
aF0.43643578047198478
aF0.43643578047198478
aF0.6546536707079772
aF0.457495710997814
aF0.457495710997814
aF0.457495710997814
aF0.60999428133041866
aF0.43643578047198478
aF0.43643578047198478
aF0.43643578047198478
aF0.6546536707079772
aF0.47140452079103173
aF0.23570226039551587
aF0.70710678118654757
aF0.47140452079103173
aF0.457495710997814
aF0.457495710997814
aF0.60999428133041866
aF0.457495710997814
aF0.457495710997814
aF0.457495710997814
aF0.457495710997814
aF0.60999428133041866
aF0.43643578047198478
aF0.6546536707079772
aF0.43643578047198478
aF0.43643578047198478
aF0.56254395046301198
aF0.67505274055561437
aF0.33752637027780719
aF0.33752637027780719
aF0.63245553203367588
aF0.31622776601683794
aF0.63245553203367588
aF0.31622776601683794
aF0.31622776601683794
aF0.31622776601683794
aF0.63245553203367588
aF0.63245553203367588
aF0.39223227027636809
aF0.58834840541455213
aF0.39223227027636809
aF0.58834840541455213
aF0.58834840541455213
aF0.58834840541455213
aF0.39223227027636809
aF0.39223227027636809
aF0.48189987357505998
aF0.48189987357505998
aF0.48189987357505998
aF0.55074271265721142
aF0.5
aF0.5
aF0.5
aF0.5
aF0.43643578047198478
aF0.43643578047198478
aF0.43643578047198478
aF0.6546536707079772
aF0.5
aF0.5
aF0.5
aF0.5
aF0.5
aF0.5
aF0.5
aF0.5
aF0.5
aF0.5
aF0.5
aF0.5
aF0.43643578047198478
aF0.43643578047198478
aF0.6546536707079772
aF0.43643578047198478
aF0.46816458878452227
aF0.46816458878452227
aF0.58520573598065284
aF0.46816458878452227
aF0.6546536707079772
aF0.43643578047198478
aF0.43643578047198478
aF0.43643578047198478
aF0.56949479745149945
aF0.47457899787624952
aF0.47457899787624952
aF0.47457899787624952
aF0.6546536707079772
aF0.43643578047198478
aF0.43643578047198478
aF0.43643578047198478
aF0.52981294282601754
aF0.52981294282601754
aF0.52981294282601754
aF0.39735970711951313
aF0.60999428133041866
aF0.457495710997814
aF0.457495710997814
aF0.457495710997814
aF0.5
aF0.5
aF0.5
aF0.5
aF0.5
aF0.5
aF0.5
aF0.5
aF0.457495710997814
aF0.60999428133041866
aF0.457495710997814
aF0.457495710997814
aF0.43643578047198478
aF0.43643578047198478
aF0.43643578047198478
aF0.6546536707079772
aF0.5
aF0.5
aF0.5
aF0.5
aF0.5388159060803247
aF0.35921060405354982
aF0.5388159060803247
aF0.5388159060803247
aF0.5
aF0.5
aF0.5
aF0.5
aF0.5
aF0.5
aF0.5
aF0.5
aF0.7745966692414834
aF0.5163977794943222
aF0.2581988897471611
aF0.2581988897471611
aF0.5
aF0.5
aF0.5
aF0.5
aF0.44172610429938614
aF0.55215763037423271
aF0.44172610429938614
aF0.55215763037423271
aF0.46816458878452227
aF0.46816458878452227
aF0.46816458878452227
aF0.58520573598065284
aF0.5
aF0.5
aF0.5
aF0.5
aF0.5
aF0.5
aF0.5
aF0.5
aF0.70710678118654757
aF0.23570226039551587
aF0.47140452079103173
aF0.47140452079103173
aF0.3779644730092272
aF0.3779644730092272
aF0.3779644730092272
aF0.7559289460184544
aF0.5
aF0.5
aF0.5
aF0.5
aF0.6546536707079772
aF0.43643578047198478
aF0.43643578047198478
aF0.43643578047198478
aF0.3779644730092272
aF0.7559289460184544
aF0.3779644730092272
aF0.3779644730092272
aF0.5
aF0.5
aF0.5
aF0.5
aF0.55215763037423271
aF0.55215763037423271
aF0.44172610429938614
aF0.44172610429938614
aF0.457495710997814
aF0.60999428133041866
aF0.457495710997814
aF0.457495710997814
aF0.39223227027636809
aF0.58834840541455213
aF0.39223227027636809
aF0.58834840541455213
aF0.58834840541455213
aF0.39223227027636809
aF0.58834840541455213
aF0.39223227027636809
aF0.3779644730092272
aF0.3779644730092272
aF0.7559289460184544
aF0.3779644730092272
aF0.56949479745149945
aF0.47457899787624952
aF0.47457899787624952
aF0.47457899787624952
aF0.52981294282601754
aF0.52981294282601754
aF0.52981294282601754
aF0.39735970711951313
aF0.5
aF0.5
aF0.5
aF0.5
aF0.52075564392329554
aF0.39056673294247163
aF0.39056673294247163
aF0.6509445549041194
aF0.69337524528153649
aF0.41602514716892186
aF0.41602514716892186
aF0.41602514716892186
aF0.5
aF0.5
aF0.5
aF0.5
aF0.62861855709371217
aF0.44901325506693729
aF0.44901325506693729
aF0.44901325506693729
aF0.61545745489666359
aF0.4923659639173309
aF0.4923659639173309
aF0.3692744729379982
aF0.5
aF0.5
aF0.5
aF0.5
aF0.61545745489666359
aF0.3692744729379982
aF0.4923659639173309
aF0.4923659639173309
aF0.3779644730092272
aF0.3779644730092272
aF0.3779644730092272
aF0.7559289460184544
aF0.5222329678670935
aF0.69631062382279141
aF0.3481553119113957
aF0.3481553119113957
aF0.457495710997814
aF0.457495710997814
aF0.457495710997814
aF0.60999428133041866
aF0.57735026918962573
aF0.46188021535170054
aF0.57735026918962573
aF0.34641016151377541
aF0.457495710997814
aF0.60999428133041866
aF0.457495710997814
aF0.457495710997814
aF0.43643578047198478
aF0.6546536707079772
aF0.43643578047198478
aF0.43643578047198478
aF0.56568542494923801
aF0.42426406871192851
aF0.56568542494923801
aF0.42426406871192851
aF0.457495710997814
aF0.457495710997814
aF0.60999428133041866
aF0.457495710997814
aF0.7559289460184544
aF0.3779644730092272
aF0.3779644730092272
aF0.3779644730092272
aF0.7559289460184544
aF0.3779644730092272
aF0.3779644730092272
aF0.3779644730092272
aF0.57735026918962573
aF0.46188021535170054
aF0.34641016151377541
aF0.57735026918962573
aF0.5
aF0.5
aF0.5
aF0.5
aF0.457495710997814
aF0.457495710997814
aF0.60999428133041866
aF0.457495710997814
aF0.5
aF0.5
aF0.5
aF0.5
aF0.457495710997814
aF0.457495710997814
aF0.60999428133041866
aF0.457495710997814
aF0.55215763037423271
aF0.44172610429938614
aF0.44172610429938614
aF0.55215763037423271
aF0.43643578047198478
aF0.43643578047198478
aF0.43643578047198478
aF0.6546536707079772
aF0.43643578047198478
aF0.43643578047198478
aF0.6546536707079772
aF0.43643578047198478
aF0.5
aF0.5
aF0.5
aF0.5
aF0.5
aF0.5
aF0.5
aF0.5
aF0.457495710997814
aF0.457495710997814
aF0.457495710997814
aF0.60999428133041866
aF0.43643578047198478
aF0.6546536707079772
aF0.43643578047198478
aF0.43643578047198478
aF0.5
aF0.5
aF0.5
aF0.5
aF0.5
aF0.5
aF0.5
aF0.5
aF0.39605901719066977
aF0.4950737714883372
aF0.4950737714883372
aF0.59408852578600457
aF0.6546536707079772
aF0.43643578047198478
aF0.43643578047198478
aF0.43643578047198478
aF0.29277002188455997
aF0.39036002917941331
aF0.78072005835882663
aF0.39036002917941331
aF0.5
aF0.5
aF0.5
aF0.5
aF0.47885213068057331
aF0.55866081912733556
aF0.47885213068057331
aF0.47885213068057331
aF0.46816458878452227
aF0.46816458878452227
aF0.46816458878452227
aF0.58520573598065284
aF0.47457899787624952
aF0.47457899787624952
aF0.47457899787624952
aF0.56949479745149945
aF0.6546536707079772
aF0.43643578047198478
aF0.43643578047198478
aF0.43643578047198478
aF0.39223227027636809
aF0.58834840541455213
aF0.58834840541455213
aF0.39223227027636809
aF0.5
aF0.5
aF0.5
aF0.5
aF0.39735970711951313
aF0.52981294282601754
aF0.52981294282601754
aF0.52981294282601754
aF0
aF0.44721359549995793
aF0.89442719099991586
aF0
aF0.3779644730092272
aF0.3779644730092272
aF0.3779644730092272
aF0.7559289460184544
aF0.40000000000000002
aF0.80000000000000004
aF0.20000000000000001
aF0.40000000000000002
aF0.5
aF0.5
aF0.5
aF0.5
aF0.43643578047198478
aF0.43643578047198478
aF0.6546536707079772
aF0.43643578047198478
aF0.47885213068057331
aF0.47885213068057331
aF0.47885213068057331
aF0.55866081912733556
aF0.5
aF0.5
aF0.5
aF0.5
aF0.52075564392329554
aF0.39056673294247163
aF0.6509445549041194
aF0.39056673294247163
aF0.52981294282601754
aF0.52981294282601754
aF0.39735970711951313
aF0.52981294282601754
aF0.43643578047198478
aF0.43643578047198478
aF0.6546536707079772
aF0.43643578047198478
aF0.3779644730092272
aF0.7559289460184544
aF0.3779644730092272
aF0.3779644730092272
aF0.5
aF0.5
aF0.5
aF0.5
aF0.52414241836095921
aF0.52414241836095921
aF0.52414241836095921
aF0.41931393468876732
aF0.31622776601683794
aF0.31622776601683794
aF0.63245553203367588
aF0.63245553203367588
aF0.3481553119113957
aF0.3481553119113957
aF0.69631062382279141
aF0.5222329678670935
aF0.39056673294247163
aF0.6509445549041194
aF0.52075564392329554
aF0.39056673294247163
aF0.457495710997814
aF0.60999428133041866
aF0.457495710997814
aF0.457495710997814
aF0.32444284226152509
aF0.48666426339228763
aF0.64888568452305018
aF0.48666426339228763
aF0.52075564392329554
aF0.39056673294247163
aF0.6509445549041194
aF0.39056673294247163
aF0.41602514716892186
aF0.41602514716892186
aF0.69337524528153649
aF0.41602514716892186
aF0.43643578047198478
aF0.43643578047198478
aF0.43643578047198478
aF0.6546536707079772
aF0.5
aF0.5
aF0.5
aF0.5
aF0.3779644730092272
aF0.3779644730092272
aF0.7559289460184544
aF0.3779644730092272
aF0.46816458878452227
aF0.46816458878452227
aF0.58520573598065284
aF0.46816458878452227
aF0.58834840541455213
aF0.58834840541455213
aF0.39223227027636809
aF0.39223227027636809
aF0.5
aF0.5
aF0.5
aF0.5
aF0.39056673294247163
aF0.52075564392329554
aF0.39056673294247163
aF0.6509445549041194
aF0.5
aF0.5
aF0.5
aF0.5
aF0.60999428133041866
aF0.457495710997814
aF0.457495710997814
aF0.457495710997814
aF0.5
aF0.5
aF0.5
aF0.5
aF0.5
aF0.5
aF0.5
aF0.5
aF0.457495710997814
aF0.457495710997814
aF0.60999428133041866
aF0.457495710997814
aF0.5
aF0.5
aF0.5
aF0.5
aF0.6546536707079772
aF0.43643578047198478
aF0.43643578047198478
aF0.43643578047198478
aF0.43643578047198478
aF0.43643578047198478
aF0.6546536707079772
aF0.43643578047198478
aF0.5
aF0.5
aF0.5
aF0.5
aF0.3481553119113957
aF0.69631062382279141
aF0.5222329678670935
aF0.3481553119113957
aF0.3779644730092272
aF0.3779644730092272
aF0.7559289460184544
aF0.3779644730092272
aF0.457495710997814
aF0.60999428133041866
aF0.457495710997814
aF0.457495710997814
aF0.4923659639173309
aF0.3692744729379982
aF0.4923659639173309
aF0.61545745489666359
aF0.5222329678670935
aF0.3481553119113957
aF0.69631062382279141
aF0.3481553119113957
aF0.41931393468876732
aF0.52414241836095921
aF0.52414241836095921
aF0.52414241836095921
aF0.60999428133041866
aF0.457495710997814
aF0.457495710997814
aF0.457495710997814
aF0.46816458878452227
aF0.46816458878452227
aF0.46816458878452227
aF0.58520573598065284
aF0.43643578047198478
aF0.43643578047198478
aF0.43643578047198478
aF0.6546536707079772
aF0.5
aF0.5
aF0.5
aF0.5
aF0.59628479399994394
aF0.29814239699997197
aF0.59628479399994394
aF0.44721359549995793
aF0.5
aF0.5
aF0.5
aF0.5
aF0.5
aF0.5
aF0.5
aF0.5
aF0.47457899787624952
aF0.47457899787624952
aF0.47457899787624952
aF0.56949479745149945
aF0.5
aF0.5
aF0.5
aF0.5
aF0.6546536707079772
aF0.43643578047198478
aF0.43643578047198478
aF0.43643578047198478
aF0.60999428133041866
aF0.457495710997814
aF0.457495710997814
aF0.457495710997814
aF0.58520573598065284
aF0.46816458878452227
aF0.46816458878452227
aF0.46816458878452227
aF0.94868329805051377
aF0
aF0.31622776601683794
aF0
aF0.43643578047198478
aF0.6546536707079772
aF0.43643578047198478
aF0.43643578047198478
aF0.42426406871192851
aF0.56568542494923801
aF0.56568542494923801
aF0.42426406871192851
aF0.43643578047198478
aF0.43643578047198478
aF0.43643578047198478
aF0.6546536707079772
aF0.5
aF0.5
aF0.5
aF0.5
aF0.47457899787624952
aF0.56949479745149945
aF0.47457899787624952
aF0.47457899787624952
aF0.5
aF0.5
aF0.5
aF0.5
aF0.5
aF0.5
aF0.5
aF0.5
aF0.5
aF0.5
aF0.5
aF0.5
aF0.6546536707079772
aF0.43643578047198478
aF0.43643578047198478
aF0.43643578047198478
aF0.41602514716892186
aF0.41602514716892186
aF0.69337524528153649
aF0.41602514716892186
aF0.3779644730092272
aF0.3779644730092272
aF0.3779644730092272
aF0.7559289460184544
aF0.43643578047198478
aF0.43643578047198478
aF0.6546536707079772
aF0.43643578047198478
aF0.43643578047198478
aF0.43643578047198478
aF0.43643578047198478
aF0.6546536707079772
aF0.63245553203367588
aF0.31622776601683794
aF0.31622776601683794
aF0.63245553203367588
aF0.4147806778921701
aF0.4147806778921701
aF0.51847584736521268
aF0.62217101683825515
aF0.19518001458970666
aF0.87831006565367986
aF0.39036002917941331
aF0.19518001458970666
aF0.457495710997814
aF0.60999428133041866
aF0.457495710997814
aF0.457495710997814
aF0.3779644730092272
aF0.3779644730092272
aF0.3779644730092272
aF0.7559289460184544
aF0.5
aF0.5
aF0.5
aF0.5
aF0.5
aF0.5
aF0.5
aF0.5
aF0.5
aF0.5
aF0.5
aF0.5
aF0.56949479745149945
aF0.47457899787624952
aF0.47457899787624952
aF0.47457899787624952
aF0.5
aF0.5
aF0.5
aF0.5
aF0.5
aF0.5
aF0.5
aF0.5
aF0.2581988897471611
aF0.2581988897471611
aF0.5163977794943222
aF0.7745966692414834
aF0.5
aF0.5
aF0.5
aF0.5
aF0.46816458878452227
aF0.46816458878452227
aF0.46816458878452227
aF0.58520573598065284
aF0.3779644730092272
aF0.7559289460184544
aF0.3779644730092272
aF0.3779644730092272
aF0.54554472558998102
aF0.3273268353539886
aF0.54554472558998102
aF0.54554472558998102
aF0.51189069688899147
aF0.51189069688899147
aF0.58501793930170454
aF0.36563621206356534
aF0.5
aF0.5
aF0.5
aF0.5
aF0.5
aF0.5
aF0.5
aF0.5
aF0.39223227027636809
aF0.39223227027636809
aF0.58834840541455213
aF0.58834840541455213
aF0.5
aF0.5
aF0.5
aF0.5
aF0.5
aF0.5
aF0.5
aF0.5
aF0.28867513459481292
aF0.28867513459481292
aF0.86602540378443871
aF0.28867513459481292
aF0.35603449745815596
aF0.23735633163877065
aF0.35603449745815596
aF0.83074716073569732
aF0.5
aF0.5
aF0.5
aF0.5
aF0.457495710997814
aF0.457495710997814
aF0.457495710997814
aF0.60999428133041866
aF0.6546536707079772
aF0.43643578047198478
aF0.43643578047198478
aF0.43643578047198478
aF0.5
aF0.5
aF0.5
aF0.5
aF0.24618298195866545
aF0.24618298195866545
aF0.3692744729379982
aF0.86164043685532909
aF0.48112522432468813
aF0.48112522432468813
aF0.28867513459481287
aF0.67357531405456339
aF0.29559878344928797
aF0.68973049471500525
aF0.29559878344928797
aF0.59119756689857594
aF0.5
aF0.5
aF0.5
aF0.5
aF0.94387980744853894
aF0.26967994498529685
aF0.13483997249264842
aF0.13483997249264842
aF0.5
aF0.5
aF0.5
aF0.5
aF0.6546536707079772
aF0.43643578047198478
aF0.43643578047198478
aF0.43643578047198478
aF0.5
aF0.5
aF0.5
aF0.5
aF0.5
aF0.5
aF0.5
aF0.5
aF0.5222329678670935
aF0.69631062382279141
aF0.3481553119113957
aF0.3481553119113957
aF0.56568542494923801
aF0.42426406871192851
aF0.56568542494923801
aF0.42426406871192851
aF0.5
aF0.5
aF0.5
aF0.5
aF0.60999428133041866
aF0.457495710997814
aF0.457495710997814
aF0.457495710997814
aF0.5388159060803247
aF0.5388159060803247
aF0.35921060405354982
aF0.5388159060803247
aF0.31622776601683794
aF0.63245553203367588
aF0.63245553203367588
aF0.31622776601683794
aF0.5
aF0.5
aF0.5
aF0.5
aF0.39735970711951313
aF0.52981294282601754
aF0.52981294282601754
aF0.52981294282601754
aF0.46816458878452227
aF0.46816458878452227
aF0.58520573598065284
aF0.46816458878452227
aF0.5
aF0.5
aF0.5
aF0.5
aF0.5
aF0.5
aF0.5
aF0.5
aF0.43643578047198478
aF0.6546536707079772
aF0.43643578047198478
aF0.43643578047198478
aF0.42426406871192851
aF0.56568542494923801
aF0.42426406871192851
aF0.56568542494923801
aF0.5
aF0.5
aF0.5
aF0.5
aF0.62994078834871203
aF0.25197631533948478
aF0.3779644730092272
aF0.62994078834871203
aF0.46625240412015689
aF0.37300192329612553
aF0.65275336576821963
aF0.46625240412015689
aF0.5
aF0.5
aF0.5
aF0.5
aF0.46816458878452227
aF0.46816458878452227
aF0.46816458878452227
aF0.58520573598065284
aF0.5
aF0.5
aF0.5
aF0.5
aF0.457495710997814
aF0.60999428133041866
aF0.457495710997814
aF0.457495710997814
aF0.21320071635561041
aF0.21320071635561041
aF0.42640143271122083
aF0.85280286542244166
aF0.58834840541455213
aF0.58834840541455213
aF0.39223227027636809
aF0.39223227027636809
aF0.5
aF0.5
aF0.5
aF0.5
aF0.63245553203367588
aF0.63245553203367588
aF0.31622776601683794
aF0.31622776601683794
aF0.6546536707079772
aF0.43643578047198478
aF0.43643578047198478
aF0.43643578047198478
aF0.5
aF0.5
aF0.5
aF0.5
aF0.5
aF0.5
aF0.5
aF0.5
aF0.5222329678670935
aF0.3481553119113957
aF0.69631062382279141
aF0.3481553119113957
aF0.5
aF0.5
aF0.5
aF0.5
aF0.457495710997814
aF0.60999428133041866
aF0.457495710997814
aF0.457495710997814
aF0.41931393468876732
aF0.52414241836095921
aF0.52414241836095921
aF0.52414241836095921
aF0.5
aF0.5
aF0.5
aF0.5
aF0.5
aF0.5
aF0.5
aF0.5
aF0.457495710997814
aF0.60999428133041866
aF0.457495710997814
aF0.457495710997814
aF0.3779644730092272
aF0.3779644730092272
aF0.7559289460184544
aF0.3779644730092272
aF0.5
aF0.5
aF0.5
aF0.5
aF0.41602514716892186
aF0.41602514716892186
aF0.41602514716892186
aF0.69337524528153649
aF0.5
aF0.5
aF0.5
aF0.5
aF0.5
aF0.5
aF0.5
aF0.5
aF0.5
aF0.5
aF0.5
aF0.5
aF0.5
aF0.5
aF0.5
aF0.5
aF0.43643578047198478
aF0.43643578047198478
aF0.43643578047198478
aF0.6546536707079772
aF0.5
aF0.5
aF0.5
aF0.5
aF0.43643578047198478
aF0.43643578047198478
aF0.43643578047198478
aF0.6546536707079772
a.