(lp1
F0.55470019622522915
aF0.27735009811261457
aF0.55470019622522915
aF0.55470019622522915
aF0.41602514716892186
aF0.41602514716892186
aF0.69337524528153649
aF0.41602514716892186
aF0.5
aF0.5
aF0.5
aF0.5
aF0.5
aF0.5
aF0.5
aF0.5
aF0.57735026918962573
aF0.57735026918962573
aF0.46188021535170054
aF0.34641016151377541
aF0.55470019622522915
aF0.27735009811261457
aF0.55470019622522915
aF0.55470019622522915
aF0.43643578047198478
aF0.6546536707079772
aF0.43643578047198478
aF0.43643578047198478
aF0.48666426339228763
aF0.32444284226152509
aF0.48666426339228763
aF0.64888568452305018
aF0.43643578047198478
aF0.43643578047198478
aF0.43643578047198478
aF0.6546536707079772
aF0.55470019622522915
aF0.27735009811261457
aF0.55470019622522915
aF0.55470019622522915
aF0.43643578047198478
aF0.43643578047198478
aF0.43643578047198478
aF0.6546536707079772
aF0.5
aF0.5
aF0.5
aF0.5
aF0.56568542494923801
aF0.42426406871192851
aF0.56568542494923801
aF0.42426406871192851
aF0.5
aF0.5
aF0.5
aF0.5
aF0.43643578047198478
aF0.43643578047198478
aF0.6546536707079772
aF0.43643578047198478
aF0.46816458878452227
aF0.46816458878452227
aF0.58520573598065284
aF0.46816458878452227
aF0.3692744729379982
aF0.4923659639173309
aF0.4923659639173309
aF0.61545745489666359
aF0.58834840541455213
aF0.39223227027636809
aF0.39223227027636809
aF0.58834840541455213
aF0.5
aF0.5
aF0.5
aF0.5
aF0.78072005835882663
aF0.29277002188455997
aF0.39036002917941331
aF0.39036002917941331
aF0.37628834735343891
aF0.5644325210301584
aF0.5644325210301584
aF0.47036043419179863
aF0.54772255750516607
aF0.73029674334022143
aF0.18257418583505536
aF0.36514837167011072
aF0.62217101683825515
aF0.4147806778921701
aF0.4147806778921701
aF0.51847584736521268
aF0.54321447625511121
aF0.45267873021259264
aF0.45267873021259264
aF0.54321447625511121
aF0.7559289460184544
aF0.3779644730092272
aF0.3779644730092272
aF0.3779644730092272
aF0.43643578047198478
aF0.6546536707079772
aF0.43643578047198478
aF0.43643578047198478
aF0.5388159060803247
aF0.5388159060803247
aF0.35921060405354982
aF0.5388159060803247
aF0.40032038451271784
aF0.40032038451271784
aF0.7205766921228921
aF0.40032038451271784
aF0.27216552697590868
aF0.54433105395181736
aF0.40824829046386302
aF0.6804138174397717
aF0.27735009811261457
aF0.55470019622522915
aF0.55470019622522915
aF0.55470019622522915
aF0.3880752628531664
aF0.31046021028253312
aF0.85376557827696609
aF0.15523010514126656
aF0.60999428133041866
aF0.457495710997814
aF0.457495710997814
aF0.457495710997814
aF0.58520573598065284
aF0.46816458878452227
aF0.46816458878452227
aF0.46816458878452227
aF0.52981294282601754
aF0.52981294282601754
aF0.52981294282601754
aF0.39735970711951313
aF0.3779644730092272
aF0.3779644730092272
aF0.3779644730092272
aF0.7559289460184544
aF0.5388159060803247
aF0.5388159060803247
aF0.35921060405354982
aF0.5388159060803247
aF0.7559289460184544
aF0.3779644730092272
aF0.3779644730092272
aF0.3779644730092272
aF0.5
aF0.5
aF0.5
aF0.5
aF0.5
aF0.5
aF0.5
aF0.5
aF0.70710678118654757
aF0.47140452079103173
aF0.23570226039551587
aF0.47140452079103173
aF0.43643578047198478
aF0.6546536707079772
aF0.43643578047198478
aF0.43643578047198478
aF0.52026598171447191
aF0.52026598171447191
aF0.52026598171447191
aF0.43355498476205995
aF0.39056673294247163
aF0.52075564392329554
aF0.39056673294247163
aF0.6509445549041194
aF0.44172610429938614
aF0.55215763037423271
aF0.44172610429938614
aF0.55215763037423271
aF0.457495710997814
aF0.457495710997814
aF0.457495710997814
aF0.60999428133041866
aF0.39056673294247163
aF0.39056673294247163
aF0.6509445549041194
aF0.52075564392329554
aF0.3779644730092272
aF0.7559289460184544
aF0.3779644730092272
aF0.3779644730092272
aF0.5
aF0.5
aF0.5
aF0.5
aF0.52414241836095921
aF0.52414241836095921
aF0.52414241836095921
aF0.41931393468876732
aF0.39735970711951313
aF0.52981294282601754
aF0.52981294282601754
aF0.52981294282601754
aF0.60999428133041866
aF0.457495710997814
aF0.457495710997814
aF0.457495710997814
aF0.457495710997814
aF0.60999428133041866
aF0.457495710997814
aF0.457495710997814
aF0.42426406871192851
aF0.56568542494923801
aF0.56568542494923801
aF0.42426406871192851
aF0.42426406871192851
aF0.42426406871192851
aF0.56568542494923801
aF0.56568542494923801
aF0.58520573598065284
aF0.46816458878452227
aF0.46816458878452227
aF0.46816458878452227
aF0.60999428133041866
aF0.457495710997814
aF0.457495710997814
aF0.457495710997814
aF0.5
aF0.5
aF0.5
aF0.5
aF0.39056673294247163
aF0.52075564392329554
aF0.6509445549041194
aF0.39056673294247163
aF0.3779644730092272
aF0.3779644730092272
aF0.7559289460184544
aF0.3779644730092272
aF0.5
aF0.5
aF0.5
aF0.5
aF0.47457899787624952
aF0.47457899787624952
aF0.47457899787624952
aF0.56949479745149945
aF0.5
aF0.5
aF0.5
aF0.5
aF0.5388159060803247
aF0.35921060405354982
aF0.5388159060803247
aF0.5388159060803247
aF0.47457899787624952
aF0.56949479745149945
aF0.47457899787624952
aF0.47457899787624952
aF0.46816458878452227
aF0.46816458878452227
aF0.58520573598065284
aF0.46816458878452227
aF0.3779644730092272
aF0.7559289460184544
aF0.3779644730092272
aF0.3779644730092272
aF0.45267873021259264
aF0.54321447625511121
aF0.45267873021259264
aF0.54321447625511121
aF0.7745966692414834
aF0.5163977794943222
aF0.2581988897471611
aF0.2581988897471611
aF0.5
aF0.5
aF0.5
aF0.5
aF0.5
aF0.5
aF0.5
aF0.5
aF0.5
aF0.5
aF0.5
aF0.5
aF0.41602514716892186
aF0.41602514716892186
aF0.41602514716892186
aF0.69337524528153649
aF0.56568542494923801
aF0.56568542494923801
aF0.42426406871192851
aF0.42426406871192851
aF0.45584230583855179
aF0.34188172937891381
aF0.68376345875782762
aF0.45584230583855179
aF0.41931393468876732
aF0.52414241836095921
aF0.52414241836095921
aF0.52414241836095921
aF0.4950737714883372
aF0.59408852578600457
aF0.4950737714883372
aF0.39605901719066977
aF0.52981294282601754
aF0.39735970711951313
aF0.52981294282601754
aF0.52981294282601754
aF0.70352647068144847
aF0.30151134457776363
aF0.50251890762960605
aF0.40201512610368484
aF0.34641016151377541
aF0.46188021535170054
aF0.57735026918962573
aF0.57735026918962573
aF0.20851441405707477
aF0.41702882811414954
aF0.62554324217122437
aF0.62554324217122437
aF0.2857142857142857
aF0.2857142857142857
aF0.5714285714285714
aF0.7142857142857143
aF0.5
aF0.5
aF0.5
aF0.5
aF0.57735026918962573
aF0.57735026918962573
aF0.34641016151377541
aF0.46188021535170054
aF0.44901325506693729
aF0.44901325506693729
aF0.44901325506693729
aF0.62861855709371217
aF0.3273268353539886
aF0.54554472558998102
aF0.54554472558998102
aF0.54554472558998102
aF0.59761430466719678
aF0.47809144373375745
aF0.59761430466719678
aF0.23904572186687872
aF0.5
aF0.5
aF0.5
aF0.5
aF0.45267873021259264
aF0.45267873021259264
aF0.54321447625511121
aF0.54321447625511121
aF0.5
aF0.5
aF0.5
aF0.5
aF0.58834840541455213
aF0.39223227027636809
aF0.58834840541455213
aF0.39223227027636809
aF0.5
aF0.5
aF0.5
aF0.5
aF0.46816458878452227
aF0.46816458878452227
aF0.46816458878452227
aF0.58520573598065284
aF0.5
aF0.5
aF0.5
aF0.5
aF0.4923659639173309
aF0.4923659639173309
aF0.3692744729379982
aF0.61545745489666359
aF0.34641016151377541
aF0.46188021535170054
aF0.57735026918962573
aF0.57735026918962573
aF0.46816458878452227
aF0.58520573598065284
aF0.46816458878452227
aF0.46816458878452227
aF0.60999428133041866
aF0.457495710997814
aF0.457495710997814
aF0.457495710997814
aF0.43643578047198478
aF0.43643578047198478
aF0.6546536707079772
aF0.43643578047198478
aF0.5222329678670935
aF0.3481553119113957
aF0.3481553119113957
aF0.69631062382279141
aF0.39056673294247163
aF0.6509445549041194
aF0.39056673294247163
aF0.52075564392329554
aF0.55215763037423271
aF0.55215763037423271
aF0.44172610429938614
aF0.44172610429938614
aF0.46816458878452227
aF0.46816458878452227
aF0.46816458878452227
aF0.58520573598065284
aF0.62861855709371217
aF0.44901325506693729
aF0.44901325506693729
aF0.44901325506693729
aF0.5
aF0.5
aF0.5
aF0.5
aF0.43905703995876139
aF0.32929277996907103
aF0.32929277996907103
aF0.76834981992783236
aF0.58520573598065284
aF0.46816458878452227
aF0.46816458878452227
aF0.46816458878452227
aF0.56568542494923801
aF0.42426406871192851
aF0.42426406871192851
aF0.56568542494923801
aF0.5
aF0.5
aF0.5
aF0.5
aF0.63245553203367588
aF0.31622776601683794
aF0.63245553203367588
aF0.31622776601683794
aF0.2581988897471611
aF0.5163977794943222
aF0.2581988897471611
aF0.7745966692414834
aF0.3779644730092272
aF0.3779644730092272
aF0.7559289460184544
aF0.3779644730092272
aF0.31622776601683794
aF0.63245553203367588
aF0.31622776601683794
aF0.63245553203367588
aF0.5388159060803247
aF0.5388159060803247
aF0.35921060405354982
aF0.5388159060803247
aF0.49656353316142077
aF0.49656353316142077
aF0.41380294430118397
aF0.57932412202165751
aF0.64888568452305018
aF0.48666426339228763
aF0.48666426339228763
aF0.32444284226152509
aF0.30860669992418382
aF0.30860669992418382
aF0.77151674981045948
aF0.46291004988627571
aF0.23570226039551587
aF0.47140452079103173
aF0.47140452079103173
aF0.70710678118654757
aF0.5388159060803247
aF0.5388159060803247
aF0.35921060405354982
aF0.5388159060803247
aF0.33927557187198837
aF0.59373225077597969
aF0.42409446483998547
aF0.59373225077597969
aF0.42426406871192851
aF0.56568542494923801
aF0.42426406871192851
aF0.56568542494923801
aF0.55470019622522915
aF0.55470019622522915
aF0.27735009811261457
aF0.55470019622522915
aF0.43643578047198478
aF0.43643578047198478
aF0.6546536707079772
aF0.43643578047198478
aF0.5388159060803247
aF0.35921060405354982
aF0.5388159060803247
aF0.5388159060803247
aF0.46816458878452227
aF0.46816458878452227
aF0.58520573598065284
aF0.46816458878452227
aF0.5
aF0.5
aF0.5
aF0.5
aF0.47457899787624952
aF0.47457899787624952
aF0.47457899787624952
aF0.56949479745149945
aF0.5
aF0.5
aF0.5
aF0.5
aF0.46816458878452227
aF0.58520573598065284
aF0.46816458878452227
aF0.46816458878452227
aF0.52981294282601754
aF0.52981294282601754
aF0.52981294282601754
aF0.39735970711951313
aF0.51745488966820097
aF0.51745488966820097
aF0.51745488966820097
aF0.44353276257274371
aF0.61394061351492046
aF0.35082320772281173
aF0.61394061351492046
aF0.35082320772281173
aF0.42426406871192851
aF0.42426406871192851
aF0.56568542494923801
aF0.56568542494923801
aF0.55470019622522915
aF0.55470019622522915
aF0.27735009811261457
aF0.55470019622522915
aF0.55470019622522915
aF0.55470019622522915
aF0.27735009811261457
aF0.55470019622522915
aF0.67505274055561437
aF0.33752637027780719
aF0.56254395046301198
aF0.33752637027780719
aF0.59628479399994394
aF0.29814239699997197
aF0.44721359549995793
aF0.59628479399994394
aF0.48564293117863205
aF0.67990010365008491
aF0.38851434494290565
aF0.38851434494290565
aF0.52414241836095921
aF0.52414241836095921
aF0.41931393468876732
aF0.52414241836095921
aF0.67855114374397674
aF0.42409446483998547
aF0.42409446483998547
aF0.42409446483998547
aF0.53994924715603887
aF0.48595432244043496
aF0.48595432244043496
aF0.48595432244043496
aF0.43643578047198478
aF0.43643578047198478
aF0.6546536707079772
aF0.43643578047198478
aF0.43643578047198478
aF0.43643578047198478
aF0.43643578047198478
aF0.6546536707079772
aF0.41602514716892186
aF0.41602514716892186
aF0.41602514716892186
aF0.69337524528153649
aF0.54321447625511121
aF0.45267873021259264
aF0.45267873021259264
aF0.54321447625511121
aF0.3779644730092272
aF0.3779644730092272
aF0.3779644730092272
aF0.7559289460184544
aF0.54321447625511121
aF0.45267873021259264
aF0.54321447625511121
aF0.45267873021259264
aF0.54321447625511121
aF0.45267873021259264
aF0.54321447625511121
aF0.45267873021259264
aF0.457495710997814
aF0.60999428133041866
aF0.457495710997814
aF0.457495710997814
aF0.5
aF0.5
aF0.5
aF0.5
aF0.64888568452305018
aF0.32444284226152509
aF0.48666426339228763
aF0.48666426339228763
aF0.31622776601683794
aF0.63245553203367588
aF0.31622776601683794
aF0.63245553203367588
aF0.39223227027636809
aF0.58834840541455213
aF0.58834840541455213
aF0.39223227027636809
aF0.46816458878452227
aF0.46816458878452227
aF0.46816458878452227
aF0.58520573598065284
aF0.457495710997814
aF0.457495710997814
aF0.60999428133041866
aF0.457495710997814
aF0.3779644730092272
aF0.7559289460184544
aF0.3779644730092272
aF0.3779644730092272
aF0.62861855709371217
aF0.44901325506693729
aF0.44901325506693729
aF0.44901325506693729
aF0.39223227027636809
aF0.58834840541455213
aF0.58834840541455213
aF0.39223227027636809
aF0.5
aF0.5
aF0.5
aF0.5
aF0.5
aF0.5
aF0.5
aF0.5
aF0.54321447625511121
aF0.54321447625511121
aF0.45267873021259264
aF0.45267873021259264
aF0.52981294282601754
aF0.39735970711951313
aF0.52981294282601754
aF0.52981294282601754
aF0.5
aF0.5
aF0.5
aF0.5
aF0.62217101683825515
aF0.4147806778921701
aF0.4147806778921701
aF0.51847584736521268
aF0.39735970711951313
aF0.52981294282601754
aF0.52981294282601754
aF0.52981294282601754
aF0.30151134457776363
aF0.70352647068144847
aF0.50251890762960605
aF0.40201512610368484
aF0.5
aF0.5
aF0.5
aF0.5
aF0.457495710997814
aF0.457495710997814
aF0.457495710997814
aF0.60999428133041866
aF0.5
aF0.5
aF0.5
aF0.5
aF0.457495710997814
aF0.457495710997814
aF0.457495710997814
aF0.60999428133041866
aF0.5
aF0.5
aF0.5
aF0.5
aF0.5
aF0.5
aF0.5
aF0.5
aF0.457495710997814
aF0.457495710997814
aF0.60999428133041866
aF0.457495710997814
aF0.52981294282601754
aF0.52981294282601754
aF0.52981294282601754
aF0.39735970711951313
aF0.27735009811261457
aF0.55470019622522915
aF0.55470019622522915
aF0.55470019622522915
aF0.457495710997814
aF0.457495710997814
aF0.457495710997814
aF0.60999428133041866
aF0.52981294282601754
aF0.39735970711951313
aF0.52981294282601754
aF0.52981294282601754
aF0.55215763037423271
aF0.55215763037423271
aF0.44172610429938614
aF0.44172610429938614
aF0.43033148291193524
aF0.60246407607670927
aF0.43033148291193524
aF0.51639777949432231
aF0.52026598171447191
aF0.52026598171447191
aF0.52026598171447191
aF0.43355498476205995
aF0.46816458878452227
aF0.58520573598065284
aF0.46816458878452227
aF0.46816458878452227
aF0.31277162108561218
aF0.5212860351426869
aF0.31277162108561218
aF0.72980044919976172
aF0.5
aF0.5
aF0.5
aF0.5
aF0.30779350562554625
aF0.5129891760425771
aF0.6155870112510925
aF0.5129891760425771
aF0.5
aF0.5
aF0.5
aF0.5
aF0.457495710997814
aF0.457495710997814
aF0.60999428133041866
aF0.457495710997814
aF0.46816458878452227
aF0.46816458878452227
aF0.46816458878452227
aF0.58520573598065284
aF0.5644325210301584
aF0.47036043419179863
aF0.37628834735343891
aF0.5644325210301584
aF0.45267873021259264
aF0.54321447625511121
aF0.45267873021259264
aF0.54321447625511121
aF0.54321447625511121
aF0.45267873021259264
aF0.54321447625511121
aF0.45267873021259264
aF0.3779644730092272
aF0.7559289460184544
aF0.3779644730092272
aF0.3779644730092272
aF0.42426406871192851
aF0.56568542494923801
aF0.42426406871192851
aF0.56568542494923801
aF0.5
aF0.5
aF0.5
aF0.5
aF0.47457899787624952
aF0.47457899787624952
aF0.56949479745149945
aF0.47457899787624952
aF0.6546536707079772
aF0.43643578047198478
aF0.43643578047198478
aF0.43643578047198478
aF0.58520573598065284
aF0.46816458878452227
aF0.46816458878452227
aF0.46816458878452227
aF0.3481553119113957
aF0.5222329678670935
aF0.69631062382279141
aF0.3481553119113957
aF0.58834840541455213
aF0.39223227027636809
aF0.58834840541455213
aF0.39223227027636809
aF0.5
aF0.5
aF0.5
aF0.5
aF0.27735009811261457
aF0.55470019622522915
aF0.55470019622522915
aF0.55470019622522915
aF0.5
aF0.5
aF0.5
aF0.5
aF0.5
aF0.5
aF0.5
aF0.5
aF0.457495710997814
aF0.60999428133041866
aF0.457495710997814
aF0.457495710997814
aF0.48666426339228763
aF0.64888568452305018
aF0.48666426339228763
aF0.32444284226152509
aF0.457495710997814
aF0.60999428133041866
aF0.457495710997814
aF0.457495710997814
aF0.5
aF0.5
aF0.5
aF0.5
aF0.5
aF0.5
aF0.5
aF0.5
aF0.60633906259083248
aF0.36380343755449945
aF0.36380343755449945
aF0.60633906259083248
aF0.52981294282601754
aF0.39735970711951313
aF0.52981294282601754
aF0.52981294282601754
aF0.5
aF0.5
aF0.5
aF0.5
aF0.41099746826339323
aF0.57539645556875052
aF0.57539645556875052
aF0.41099746826339323
aF0.5
aF0.5
aF0.5
aF0.5
aF0.5
aF0.5
aF0.5
aF0.5
aF0.5
aF0.5
aF0.5
aF0.5
aF0.5
aF0.5
aF0.5
aF0.5
aF0.47457899787624952
aF0.47457899787624952
aF0.47457899787624952
aF0.56949479745149945
aF0.58834840541455213
aF0.58834840541455213
aF0.39223227027636809
aF0.39223227027636809
aF0.47885213068057331
aF0.47885213068057331
aF0.55866081912733556
aF0.47885213068057331
aF0.42426406871192851
aF0.56568542494923801
aF0.42426406871192851
aF0.56568542494923801
aF0.43643578047198478
aF0.6546536707079772
aF0.43643578047198478
aF0.43643578047198478
aF0.60633906259083248
aF0.60633906259083248
aF0.36380343755449945
aF0.36380343755449945
aF0.43643578047198478
aF0.6546536707079772
aF0.43643578047198478
aF0.43643578047198478
aF0.39223227027636809
aF0.39223227027636809
aF0.58834840541455213
aF0.58834840541455213
aF0.5
aF0.5
aF0.5
aF0.5
aF0.5
aF0.5
aF0.5
aF0.5
aF0.5
aF0.5
aF0.5
aF0.5
aF0.39056673294247163
aF0.39056673294247163
aF0.6509445549041194
aF0.52075564392329554
aF0.57735026918962573
aF0.57735026918962573
aF0.46188021535170054
aF0.34641016151377541
aF0.5
aF0.5
aF0.5
aF0.5
aF0.6546536707079772
aF0.43643578047198478
aF0.43643578047198478
aF0.43643578047198478
aF0.5
aF0.5
aF0.5
aF0.5
aF0.55215763037423271
aF0.55215763037423271
aF0.44172610429938614
aF0.44172610429938614
aF0.5
aF0.5
aF0.5
aF0.5
aF0.43643578047198478
aF0.6546536707079772
aF0.43643578047198478
aF0.43643578047198478
aF0.5
aF0.5
aF0.5
aF0.5
aF0.82199493652678646
aF0.32879797461071458
aF0.32879797461071458
aF0.32879797461071458
aF0.56949479745149945
aF0.47457899787624952
aF0.47457899787624952
aF0.47457899787624952
aF0.54321447625511121
aF0.45267873021259264
aF0.45267873021259264
aF0.54321447625511121
aF0.54321447625511121
aF0.45267873021259264
aF0.45267873021259264
aF0.54321447625511121
aF0.43643578047198478
aF0.43643578047198478
aF0.6546536707079772
aF0.43643578047198478
aF0.58520573598065284
aF0.46816458878452227
aF0.46816458878452227
aF0.46816458878452227
aF0.55215763037423271
aF0.55215763037423271
aF0.44172610429938614
aF0.44172610429938614
aF0.42409446483998547
aF0.42409446483998547
aF0.67855114374397674
aF0.42409446483998547
aF0.20000000000000001
aF0.40000000000000002
aF0.80000000000000004
aF0.40000000000000002
aF0.55215763037423271
aF0.44172610429938614
aF0.44172610429938614
aF0.55215763037423271
aF0.58520573598065284
aF0.46816458878452227
aF0.46816458878452227
aF0.46816458878452227
aF0.49656353316142077
aF0.41380294430118397
aF0.57932412202165751
aF0.49656353316142077
aF0.47885213068057331
aF0.47885213068057331
aF0.47885213068057331
aF0.55866081912733556
aF0.5
aF0.5
aF0.5
aF0.5
aF0.43643578047198478
aF0.6546536707079772
aF0.43643578047198478
aF0.43643578047198478
aF0.5
aF0.5
aF0.5
aF0.5
aF0.52981294282601754
aF0.52981294282601754
aF0.52981294282601754
aF0.39735970711951313
aF0.457495710997814
aF0.457495710997814
aF0.60999428133041866
aF0.457495710997814
aF0.41602514716892186
aF0.41602514716892186
aF0.69337524528153649
aF0.41602514716892186
aF0.43643578047198478
aF0.6546536707079772
aF0.43643578047198478
aF0.43643578047198478
aF0.5
aF0.5
aF0.5
aF0.5
aF0.457495710997814
aF0.60999428133041866
aF0.457495710997814
aF0.457495710997814
aF0.5
aF0.5
aF0.5
aF0.5
aF0.457495710997814
aF0.60999428133041866
aF0.457495710997814
aF0.457495710997814
aF0.6546536707079772
aF0.43643578047198478
aF0.43643578047198478
aF0.43643578047198478
aF0.457495710997814
aF0.60999428133041866
aF0.457495710997814
aF0.457495710997814
aF0.39056673294247163
aF0.52075564392329554
aF0.6509445549041194
aF0.39056673294247163
aF0.5
aF0.5
aF0.5
aF0.5
aF0.5
aF0.5
aF0.5
aF0.5
aF0.5
aF0.5
aF0.5
aF0.5
aF0.71713716560063612
aF0.35856858280031806
aF0.35856858280031806
aF0.47809144373375745
aF0.457495710997814
aF0.457495710997814
aF0.60999428133041866
aF0.457495710997814
aF0.5
aF0.5
aF0.5
aF0.5
aF0.55215763037423271
aF0.55215763037423271
aF0.44172610429938614
aF0.44172610429938614
aF0.5
aF0.5
aF0.5
aF0.5
aF0.5
aF0.5
aF0.5
aF0.5
aF0.5
aF0.5
aF0.5
aF0.5
aF0.41602514716892186
aF0.41602514716892186
aF0.41602514716892186
aF0.69337524528153649
aF0.6546536707079772
aF0.43643578047198478
aF0.43643578047198478
aF0.43643578047198478
aF0.56568542494923801
aF0.42426406871192851
aF0.56568542494923801
aF0.42426406871192851
aF0.38851434494290565
aF0.38851434494290565
aF0.67990010365008491
aF0.48564293117863205
aF0.46816458878452227
aF0.46816458878452227
aF0.46816458878452227
aF0.58520573598065284
aF0.3779644730092272
aF0.3779644730092272
aF0.7559289460184544
aF0.3779644730092272
aF0.60999428133041866
aF0.457495710997814
aF0.457495710997814
aF0.457495710997814
aF0.56568542494923801
aF0.42426406871192851
aF0.56568542494923801
aF0.42426406871192851
aF0.56568542494923801
aF0.42426406871192851
aF0.42426406871192851
aF0.56568542494923801
aF0.5
aF0.5
aF0.5
aF0.5
aF0.39056673294247163
aF0.39056673294247163
aF0.6509445549041194
aF0.52075564392329554
aF0.69337524528153649
aF0.41602514716892186
aF0.41602514716892186
aF0.41602514716892186
aF0.57735026918962584
aF0
aF0.57735026918962584
aF0.57735026918962584
aF0.6546536707079772
aF0.43643578047198478
aF0.43643578047198478
aF0.43643578047198478
aF0.52981294282601754
aF0.52981294282601754
aF0.52981294282601754
aF0.39735970711951313
aF0.52026598171447191
aF0.43355498476205995
aF0.52026598171447191
aF0.52026598171447191
aF0.60999428133041866
aF0.457495710997814
aF0.457495710997814
aF0.457495710997814
aF0.5
aF0.5
aF0.5
aF0.5
aF0.5
aF0.5
aF0.5
aF0.5
aF0.43643578047198478
aF0.43643578047198478
aF0.6546536707079772
aF0.43643578047198478
aF0.59628479399994394
aF0.29814239699997197
aF0.59628479399994394
aF0.44721359549995793
aF0.42409446483998547
aF0.67855114374397674
aF0.42409446483998547
aF0.42409446483998547
aF0.52414241836095921
aF0.41931393468876732
aF0.52414241836095921
aF0.52414241836095921
aF0.52026598171447191
aF0.43355498476205995
aF0.52026598171447191
aF0.52026598171447191
aF0.42426406871192851
aF0.56568542494923801
aF0.42426406871192851
aF0.56568542494923801
aF0.55470019622522915
aF0.55470019622522915
aF0.27735009811261457
aF0.55470019622522915
aF0.56568542494923801
aF0.42426406871192851
aF0.56568542494923801
aF0.42426406871192851
aF0.43643578047198478
aF0.43643578047198478
aF0.43643578047198478
aF0.6546536707079772
aF0.5
aF0.5
aF0.5
aF0.5
aF0.43643578047198478
aF0.6546536707079772
aF0.43643578047198478
aF0.43643578047198478
aF0.48666426339228763
aF0.64888568452305018
aF0.48666426339228763
aF0.32444284226152509
aF0.5
aF0.5
aF0.5
aF0.5
aF0.3692744729379982
aF0.4923659639173309
aF0.61545745489666359
aF0.4923659639173309
aF0.46816458878452227
aF0.46816458878452227
aF0.46816458878452227
aF0.58520573598065284
aF0.5
aF0.5
aF0.5
aF0.5
aF0.52981294282601754
aF0.39735970711951313
aF0.52981294282601754
aF0.52981294282601754
aF0.55215763037423271
aF0.44172610429938614
aF0.55215763037423271
aF0.44172610429938614
aF0.457495710997814
aF0.457495710997814
aF0.60999428133041866
aF0.457495710997814
aF0.46816458878452227
aF0.58520573598065284
aF0.46816458878452227
aF0.46816458878452227
aF0.43643578047198478
aF0.43643578047198478
aF0.43643578047198478
aF0.6546536707079772
aF0.5
aF0.5
aF0.5
aF0.5
aF0.3481553119113957
aF0.5222329678670935
aF0.69631062382279141
aF0.3481553119113957
aF0.60999428133041866
aF0.457495710997814
aF0.457495710997814
aF0.457495710997814
aF0.5
aF0.5
aF0.5
aF0.5
aF0.5
aF0.5
aF0.5
aF0.5
aF0.42426406871192851
aF0.56568542494923801
aF0.56568542494923801
aF0.42426406871192851
aF0.5
aF0.5
aF0.5
aF0.5
aF0.56568542494923801
aF0.42426406871192851
aF0.42426406871192851
aF0.56568542494923801
aF0.58520573598065284
aF0.46816458878452227
aF0.46816458878452227
aF0.46816458878452227
aF0.52414241836095921
aF0.41931393468876732
aF0.52414241836095921
aF0.52414241836095921
aF0.64888568452305018
aF0.48666426339228763
aF0.32444284226152509
aF0.48666426339228763
aF0.5644325210301584
aF0.37628834735343891
aF0.47036043419179863
aF0.5644325210301584
aF0.4216370213557839
aF0.4216370213557839
aF0.73786478737262184
aF0.31622776601683794
aF0.3779644730092272
aF0.3779644730092272
aF0.3779644730092272
aF0.7559289460184544
aF0.5
aF0.5
aF0.5
aF0.5
aF0.25197631533948478
aF0.62994078834871203
aF0.62994078834871203
aF0.3779644730092272
aF0.5388159060803247
aF0.5388159060803247
aF0.5388159060803247
aF0.35921060405354982
aF0.5
aF0.5
aF0.5
aF0.5
aF0.5
aF0.5
aF0.5
aF0.5
aF0.47457899787624952
aF0.47457899787624952
aF0.56949479745149945
aF0.47457899787624952
aF0.5
aF0.5
aF0.5
aF0.5
aF0.49746833816309105
aF0.56853524361496122
aF0.42640143271122088
aF0.49746833816309105
aF0.39735970711951313
aF0.52981294282601754
aF0.52981294282601754
aF0.52981294282601754
aF0.5
aF0.5
aF0.5
aF0.5
aF0.58520573598065284
aF0.46816458878452227
aF0.46816458878452227
aF0.46816458878452227
aF0.5
aF0.5
aF0.5
aF0.5
aF0.457495710997814
aF0.457495710997814
aF0.457495710997814
aF0.60999428133041866
aF0.5
aF0.5
aF0.5
aF0.5
aF0.5
aF0.5
aF0.5
aF0.5
aF0.46816458878452227
aF0.58520573598065284
aF0.46816458878452227
aF0.46816458878452227
aF0.46977617561176277
aF0.52849819756323313
aF0.46977617561176277
aF0.52849819756323313
aF0.5
aF0.5
aF0.5
aF0.5
aF0.37300192329612553
aF0.46625240412015689
aF0.46625240412015689
aF0.65275336576821963
aF0.4147806778921701
aF0.4147806778921701
aF0.62217101683825515
aF0.51847584736521268
aF0.51847584736521268
aF0.62217101683825515
aF0.4147806778921701
aF0.4147806778921701
aF0.37476584449793071
aF0.37476584449793071
aF0.59962535119668914
aF0.59962535119668914
aF0.457495710997814
aF0.60999428133041866
aF0.457495710997814
aF0.457495710997814
aF0.58834840541455213
aF0.39223227027636809
aF0.58834840541455213
aF0.39223227027636809
aF0.42426406871192851
aF0.56568542494923801
aF0.42426406871192851
aF0.56568542494923801
aF0.43643578047198478
aF0.6546536707079772
aF0.43643578047198478
aF0.43643578047198478
aF0.46816458878452227
aF0.46816458878452227
aF0.58520573598065284
aF0.46816458878452227
aF0.5388159060803247
aF0.5388159060803247
aF0.5388159060803247
aF0.35921060405354982
aF0.52414241836095921
aF0.41931393468876732
aF0.52414241836095921
aF0.52414241836095921
aF0.5222329678670935
aF0.3481553119113957
aF0.3481553119113957
aF0.69631062382279141
aF0.5163977794943222
aF0.2581988897471611
aF0.7745966692414834
aF0.2581988897471611
aF0.5
aF0.5
aF0.5
aF0.5
aF0.47140452079103173
aF0.70710678118654757
aF0.47140452079103173
aF0.23570226039551587
aF0.41602514716892186
aF0.41602514716892186
aF0.69337524528153649
aF0.41602514716892186
aF0.43643578047198478
aF0.43643578047198478
aF0.43643578047198478
aF0.6546536707079772
aF0.39056673294247163
aF0.52075564392329554
aF0.6509445549041194
aF0.39056673294247163
aF0.39223227027636809
aF0.58834840541455213
aF0.39223227027636809
aF0.58834840541455213
aF0.56254395046301198
aF0.33752637027780719
aF0.33752637027780719
aF0.67505274055561437
aF0.62861855709371217
aF0.44901325506693729
aF0.44901325506693729
aF0.44901325506693729
aF0.37476584449793071
aF0.82448485789544756
aF0.29981267559834457
aF0.29981267559834457
aF0.58834840541455213
aF0.39223227027636809
aF0.39223227027636809
aF0.58834840541455213
aF0.40613846605344767
aF0.7107423155935334
aF0.40613846605344767
aF0.40613846605344767
aF0.41602514716892186
aF0.41602514716892186
aF0.41602514716892186
aF0.69337524528153649
aF0.457495710997814
aF0.457495710997814
aF0.457495710997814
aF0.60999428133041866
aF0.47885213068057331
aF0.47885213068057331
aF0.47885213068057331
aF0.55866081912733556
aF0.49746833816309105
aF0.49746833816309105
aF0.56853524361496122
aF0.42640143271122088
aF0.39056673294247163
aF0.6509445549041194
aF0.52075564392329554
aF0.39056673294247163
aF0.3779644730092272
aF0.3779644730092272
aF0.7559289460184544
aF0.3779644730092272
aF0.69631062382279141
aF0.3481553119113957
aF0.3481553119113957
aF0.5222329678670935
aF0.3779644730092272
aF0.3779644730092272
aF0.3779644730092272
aF0.7559289460184544
aF0.60633906259083248
aF0.36380343755449945
aF0.60633906259083248
aF0.36380343755449945
aF0.5
aF0.5
aF0.5
aF0.5
aF0.5
aF0.5
aF0.5
aF0.5
aF0.43643578047198478
aF0.43643578047198478
aF0.43643578047198478
aF0.6546536707079772
aF0.43643578047198478
aF0.6546536707079772
aF0.43643578047198478
aF0.43643578047198478
aF0.58834840541455213
aF0.39223227027636809
aF0.39223227027636809
aF0.58834840541455213
aF0.39223227027636809
aF0.58834840541455213
aF0.39223227027636809
aF0.58834840541455213
aF0.56568542494923801
aF0.56568542494923801
aF0.42426406871192851
aF0.42426406871192851
aF0.5388159060803247
aF0.5388159060803247
aF0.35921060405354982
aF0.5388159060803247
aF0.5
aF0.5
aF0.5
aF0.5
aF0.60999428133041866
aF0.457495710997814
aF0.457495710997814
aF0.457495710997814
aF0.5
aF0.5
aF0.5
aF0.5
aF0.457495710997814
aF0.457495710997814
aF0.60999428133041866
aF0.457495710997814
aF0.56568542494923801
aF0.42426406871192851
aF0.56568542494923801
aF0.42426406871192851
aF0.52026598171447191
aF0.52026598171447191
aF0.52026598171447191
aF0.43355498476205995
aF0.5
aF0.5
aF0.5
aF0.5
aF0.43355498476205995
aF0.52026598171447191
aF0.52026598171447191
aF0.52026598171447191
aF0.52414241836095921
aF0.52414241836095921
aF0.52414241836095921
aF0.41931393468876732
aF0.46017899330842221
aF0.53687549219315922
aF0.46017899330842221
aF0.53687549219315922
aF0.5
aF0.5
aF0.5
aF0.5
aF0.44901325506693729
aF0.62861855709371217
aF0.44901325506693729
aF0.44901325506693729
aF0.47457899787624952
aF0.47457899787624952
aF0.47457899787624952
aF0.56949479745149945
aF0.42426406871192851
aF0.42426406871192851
aF0.56568542494923801
aF0.56568542494923801
aF0.5
aF0.5
aF0.5
aF0.5
aF0.35856858280031806
aF0.47809144373375745
aF0.71713716560063612
aF0.35856858280031806
aF0.5
aF0.5
aF0.5
aF0.5
aF0.5
aF0.5
aF0.5
aF0.5
aF0.45267873021259264
aF0.54321447625511121
aF0.45267873021259264
aF0.54321447625511121
aF0.42426406871192851
aF0.56568542494923801
aF0.42426406871192851
aF0.56568542494923801
aF0.39223227027636809
aF0.58834840541455213
aF0.39223227027636809
aF0.58834840541455213
aF0.38138503569823695
aF0.28603877677367767
aF0.85811633032103307
aF0.19069251784911848
aF0.77151674981045948
aF0.30860669992418382
aF0.30860669992418382
aF0.46291004988627571
aF0.3779644730092272
aF0.3779644730092272
aF0.3779644730092272
aF0.7559289460184544
aF0.52981294282601754
aF0.52981294282601754
aF0.39735970711951313
aF0.52981294282601754
aF0.3481553119113957
aF0.3481553119113957
aF0.69631062382279141
aF0.5222329678670935
aF0.6546536707079772
aF0.43643578047198478
aF0.43643578047198478
aF0.43643578047198478
aF0.5
aF0.5
aF0.5
aF0.5
aF0.58520573598065284
aF0.46816458878452227
aF0.46816458878452227
aF0.46816458878452227
aF0.5
aF0.5
aF0.5
aF0.5
aF0.46816458878452227
aF0.46816458878452227
aF0.58520573598065284
aF0.46816458878452227
aF0.457495710997814
aF0.457495710997814
aF0.60999428133041866
aF0.457495710997814
aF0.5
aF0.5
aF0.5
aF0.5
aF0.52981294282601754
aF0.39735970711951313
aF0.52981294282601754
aF0.52981294282601754
aF0.5
aF0.5
aF0.5
aF0.5
aF0.3481553119113957
aF0.3481553119113957
aF0.69631062382279141
aF0.5222329678670935
aF0.71713716560063612
aF0.35856858280031806
aF0.35856858280031806
aF0.47809144373375745
aF0.45732956038002359
aF0.68599434057003539
aF0.40016336533252062
aF0.40016336533252062
aF0.52026598171447191
aF0.52026598171447191
aF0.52026598171447191
aF0.43355498476205995
aF0.4147806778921701
aF0.51847584736521268
aF0.4147806778921701
aF0.62217101683825515
aF0.47457899787624952
aF0.47457899787624952
aF0.56949479745149945
aF0.47457899787624952
aF0.5
aF0.5
aF0.5
aF0.5
aF0.56568542494923801
aF0.42426406871192851
aF0.42426406871192851
aF0.56568542494923801
aF0.46816458878452227
aF0.58520573598065284
aF0.46816458878452227
aF0.46816458878452227
aF0.60999428133041866
aF0.457495710997814
aF0.457495710997814
aF0.457495710997814
aF0.6546536707079772
aF0.43643578047198478
aF0.43643578047198478
aF0.43643578047198478
aF0.5
aF0.5
aF0.5
aF0.5
aF0.457495710997814
aF0.60999428133041866
aF0.457495710997814
aF0.457495710997814
aF0.58834840541455213
aF0.39223227027636809
aF0.58834840541455213
aF0.39223227027636809
aF0.58834840541455213
aF0.39223227027636809
aF0.39223227027636809
aF0.58834840541455213
aF0.5
aF0.5
aF0.5
aF0.5
aF0.55215763037423271
aF0.44172610429938614
aF0.55215763037423271
aF0.44172610429938614
aF0.32879797461071458
aF0.32879797461071458
aF0.82199493652678646
aF0.32879797461071458
aF0.44172610429938614
aF0.55215763037423271
aF0.55215763037423271
aF0.44172610429938614
aF0.30860669992418382
aF0.77151674981045948
aF0.46291004988627571
aF0.30860669992418382
aF0.43643578047198478
aF0.43643578047198478
aF0.43643578047198478
aF0.6546536707079772
aF0.53687549219315922
aF0.53687549219315922
aF0.46017899330842221
aF0.46017899330842221
aF0.42426406871192851
aF0.56568542494923801
aF0.56568542494923801
aF0.42426406871192851
aF0.69337524528153649
aF0.41602514716892186
aF0.41602514716892186
aF0.41602514716892186
aF0.52414241836095921
aF0.41931393468876732
aF0.52414241836095921
aF0.52414241836095921
aF0.60999428133041866
aF0.457495710997814
aF0.457495710997814
aF0.457495710997814
aF0.60999428133041866
aF0.457495710997814
aF0.457495710997814
aF0.457495710997814
aF0.5
aF0.5
aF0.5
aF0.5
aF0.61545745489666359
aF0.3692744729379982
aF0.4923659639173309
aF0.4923659639173309
aF0.44172610429938614
aF0.55215763037423271
aF0.55215763037423271
aF0.44172610429938614
aF0.3779644730092272
aF0.3779644730092272
aF0.3779644730092272
aF0.7559289460184544
aF0.63245553203367588
aF0.31622776601683794
aF0.63245553203367588
aF0.31622776601683794
aF0.43643578047198478
aF0.6546536707079772
aF0.43643578047198478
aF0.43643578047198478
aF0.53916386601719202
aF0.32349831961031522
aF0.64699663922063044
aF0.43133109281375365
aF0.457495710997814
aF0.457495710997814
aF0.60999428133041866
aF0.457495710997814
aF0.3779644730092272
aF0.3779644730092272
aF0.3779644730092272
aF0.7559289460184544
aF0.51847584736521268
aF0.62217101683825515
aF0.4147806778921701
aF0.4147806778921701
aF0.53066863050523239
aF0.37904902178945171
aF0.6064784348631227
aF0.45485882614734202
aF0.40824829046386302
aF0.65319726474218087
aF0.48989794855663565
aF0.40824829046386302
aF0.56568542494923801
aF0.42426406871192851
aF0.42426406871192851
aF0.56568542494923801
aF0.56949479745149945
aF0.47457899787624952
aF0.47457899787624952
aF0.47457899787624952
aF0.65653216429861272
aF0.65653216429861272
aF0.26261286571944509
aF0.26261286571944509
aF0.60999428133041866
aF0.457495710997814
aF0.457495710997814
aF0.457495710997814
aF0.54433105395181736
aF0.27216552697590868
aF0.6804138174397717
aF0.40824829046386302
aF0.35634832254989918
aF0.53452248382484879
aF0.62360956446232352
aF0.44543540318737396
aF0.69337524528153649
aF0.41602514716892186
aF0.41602514716892186
aF0.41602514716892186
aF0.5
aF0.5
aF0.5
aF0.5
aF0.43643578047198478
aF0.6546536707079772
aF0.43643578047198478
aF0.43643578047198478
aF0.3779644730092272
aF0.3779644730092272
aF0.7559289460184544
aF0.3779644730092272
aF0.5
aF0.5
aF0.5
aF0.5
aF0.55470019622522915
aF0.55470019622522915
aF0.27735009811261457
aF0.55470019622522915
aF0.3779644730092272
aF0.3779644730092272
aF0.3779644730092272
aF0.7559289460184544
aF0.5
aF0.5
aF0.5
aF0.5
aF0.56949479745149945
aF0.47457899787624952
aF0.47457899787624952
aF0.47457899787624952
aF0.60246407607670927
aF0.43033148291193524
aF0.51639777949432231
aF0.43033148291193524
aF0.46563307366641754
aF0.53215208419019144
aF0.46563307366641754
aF0.53215208419019144
aF0.52026598171447191
aF0.52026598171447191
aF0.43355498476205995
aF0.52026598171447191
aF0.5
aF0.5
aF0.5
aF0.5
aF0.457495710997814
aF0.60999428133041866
aF0.457495710997814
aF0.457495710997814
aF0.43643578047198478
aF0.6546536707079772
aF0.43643578047198478
aF0.43643578047198478
aF0.58834840541455213
aF0.39223227027636809
aF0.39223227027636809
aF0.58834840541455213
aF0.61545745489666359
aF0.4923659639173309
aF0.3692744729379982
aF0.4923659639173309
aF0.3481553119113957
aF0.69631062382279141
aF0.3481553119113957
aF0.5222329678670935
aF0.5
aF0.5
aF0.5
aF0.5
aF0.5
aF0.5
aF0.5
aF0.5
aF0.47457899787624952
aF0.47457899787624952
aF0.56949479745149945
aF0.47457899787624952
aF0.5
aF0.5
aF0.5
aF0.5
aF0.36363636363636365
aF0.36363636363636365
aF0.72727272727272729
aF0.45454545454545453
aF0.39735970711951313
aF0.52981294282601754
aF0.52981294282601754
aF0.52981294282601754
aF0.44901325506693729
aF0.62861855709371217
aF0.44901325506693729
aF0.44901325506693729
aF0.5
aF0.5
aF0.5
aF0.5
aF0.65653216429861272
aF0.26261286571944509
aF0.65653216429861272
aF0.26261286571944509
aF0.5
aF0.5
aF0.5
aF0.5
aF0.43643578047198478
aF0.43643578047198478
aF0.6546536707079772
aF0.43643578047198478
aF0.5
aF0.5
aF0.5
aF0.5
aF0.60999428133041866
aF0.457495710997814
aF0.457495710997814
aF0.457495710997814
aF0.5
aF0.5
aF0.5
aF0.5
aF0.5
aF0.5
aF0.5
aF0.5
aF0.5
aF0.5
aF0.5
aF0.5
aF0.5
aF0.5
aF0.5
aF0.5
aF0.5
aF0.5
aF0.5
aF0.5
aF0.34641016151377541
aF0.46188021535170054
aF0.57735026918962573
aF0.57735026918962573
aF0.63245553203367588
aF0.31622776601683794
aF0.31622776601683794
aF0.63245553203367588
aF0.28867513459481292
aF0.28867513459481292
aF0.28867513459481292
aF0.86602540378443871
aF0.56568542494923801
aF0.42426406871192851
aF0.56568542494923801
aF0.42426406871192851
aF0.5
aF0.5
aF0.5
aF0.5
aF0.43643578047198478
aF0.43643578047198478
aF0.6546536707079772
aF0.43643578047198478
aF0.55866081912733556
aF0.47885213068057331
aF0.47885213068057331
aF0.47885213068057331
aF0.52075564392329554
aF0.39056673294247163
aF0.6509445549041194
aF0.39056673294247163
aF0.6546536707079772
aF0.43643578047198478
aF0.43643578047198478
aF0.43643578047198478
aF0.42426406871192851
aF0.42426406871192851
aF0.56568542494923801
aF0.56568542494923801
aF0.58834840541455213
aF0.39223227027636809
aF0.39223227027636809
aF0.58834840541455213
aF0.44172610429938614
aF0.55215763037423271
aF0.44172610429938614
aF0.55215763037423271
aF0.39735970711951313
aF0.52981294282601754
aF0.52981294282601754
aF0.52981294282601754
aF0.44172610429938614
aF0.44172610429938614
aF0.55215763037423271
aF0.55215763037423271
aF0.5
aF0.5
aF0.5
aF0.5
aF0.55215763037423271
aF0.44172610429938614
aF0.55215763037423271
aF0.44172610429938614
aF0.43643578047198478
aF0.43643578047198478
aF0.6546536707079772
aF0.43643578047198478
aF0.43643578047198478
aF0.6546536707079772
aF0.43643578047198478
aF0.43643578047198478
aF0.5
aF0.5
aF0.5
aF0.5
aF0.48666426339228763
aF0.32444284226152509
aF0.48666426339228763
aF0.64888568452305018
aF0.42426406871192851
aF0.56568542494923801
aF0.56568542494923801
aF0.42426406871192851
aF0.5
aF0.5
aF0.5
aF0.5
aF0.46291004988627571
aF0.77151674981045948
aF0.30860669992418382
aF0.30860669992418382
aF0.46816458878452227
aF0.46816458878452227
aF0.46816458878452227
aF0.58520573598065284
aF0.55215763037423271
aF0.44172610429938614
aF0.55215763037423271
aF0.44172610429938614
aF0.53994924715603887
aF0.48595432244043496
aF0.48595432244043496
aF0.48595432244043496
aF0.3779644730092272
aF0.7559289460184544
aF0.3779644730092272
aF0.3779644730092272
aF0.57932412202165751
aF0.41380294430118397
aF0.49656353316142077
aF0.49656353316142077
aF0.5
aF0.5
aF0.5
aF0.5
aF0.5
aF0.5
aF0.5
aF0.5
aF0.44172610429938614
aF0.55215763037423271
aF0.44172610429938614
aF0.55215763037423271
aF0.56568542494923801
aF0.56568542494923801
aF0.42426406871192851
aF0.42426406871192851
aF0.5
aF0.5
aF0.5
aF0.5
aF0.5
aF0.5
aF0.5
aF0.5
aF0.4923659639173309
aF0.3692744729379982
aF0.4923659639173309
aF0.61545745489666359
aF0.39223227027636809
aF0.39223227027636809
aF0.58834840541455213
aF0.58834840541455213
aF0.7559289460184544
aF0.3779644730092272
aF0.3779644730092272
aF0.3779644730092272
aF0.44172610429938614
aF0.55215763037423271
aF0.55215763037423271
aF0.44172610429938614
aF0.3779644730092272
aF0.3779644730092272
aF0.7559289460184544
aF0.3779644730092272
aF0.5
aF0.5
aF0.5
aF0.5
aF0.56949479745149945
aF0.47457899787624952
aF0.47457899787624952
aF0.47457899787624952
aF0.42426406871192851
aF0.56568542494923801
aF0.56568542494923801
aF0.42426406871192851
aF0.48189987357505998
aF0.48189987357505998
aF0.55074271265721142
aF0.48189987357505998
aF0.5
aF0.5
aF0.5
aF0.5
aF0.7745966692414834
aF0.2581988897471611
aF0.5163977794943222
aF0.2581988897471611
aF0.46816458878452227
aF0.58520573598065284
aF0.46816458878452227
aF0.46816458878452227
aF0.58834840541455213
aF0.39223227027636809
aF0.58834840541455213
aF0.39223227027636809
aF0.52414241836095921
aF0.52414241836095921
aF0.41931393468876732
aF0.52414241836095921
aF0.6546536707079772
aF0.43643578047198478
aF0.43643578047198478
aF0.43643578047198478
aF0.55215763037423271
aF0.55215763037423271
aF0.44172610429938614
aF0.44172610429938614
aF0.21566554640687682
aF0.32349831961031522
aF0.86266218562750729
aF0.32349831961031522
aF0.60999428133041866
aF0.457495710997814
aF0.457495710997814
aF0.457495710997814
aF0.5
aF0.5
aF0.5
aF0.5
aF0.47885213068057331
aF0.55866081912733556
aF0.47885213068057331
aF0.47885213068057331
aF0.56568542494923801
aF0.42426406871192851
aF0.56568542494923801
aF0.42426406871192851
aF0.39223227027636809
aF0.58834840541455213
aF0.39223227027636809
aF0.58834840541455213
aF0.7559289460184544
aF0.3779644730092272
aF0.3779644730092272
aF0.3779644730092272
aF0.41602514716892186
aF0.41602514716892186
aF0.41602514716892186
aF0.69337524528153649
aF0.46816458878452227
aF0.46816458878452227
aF0.46816458878452227
aF0.58520573598065284
aF0.6546536707079772
aF0.43643578047198478
aF0.43643578047198478
aF0.43643578047198478
aF0.41931393468876732
aF0.52414241836095921
aF0.52414241836095921
aF0.52414241836095921
aF0.5
aF0.5
aF0.5
aF0.5
aF0.457495710997814
aF0.457495710997814
aF0.457495710997814
aF0.60999428133041866
aF0.46816458878452227
aF0.46816458878452227
aF0.46816458878452227
aF0.58520573598065284
aF0.39223227027636809
aF0.39223227027636809
aF0.58834840541455213
aF0.58834840541455213
aF0.45267873021259264
aF0.45267873021259264
aF0.54321447625511121
aF0.54321447625511121
aF0.32444284226152509
aF0.48666426339228763
aF0.48666426339228763
aF0.64888568452305018
aF0.56568542494923801
aF0.42426406871192851
aF0.42426406871192851
aF0.56568542494923801
aF0.5388159060803247
aF0.5388159060803247
aF0.35921060405354982
aF0.5388159060803247
aF0.457495710997814
aF0.457495710997814
aF0.60999428133041866
aF0.457495710997814
aF0.55215763037423271
aF0.55215763037423271
aF0.44172610429938614
aF0.44172610429938614
aF0.6546536707079772
aF0.43643578047198478
aF0.43643578047198478
aF0.43643578047198478
aF0.5
aF0.5
aF0.5
aF0.5
aF0.5
aF0.5
aF0.5
aF0.5
aF0.5222329678670935
aF0.69631062382279141
aF0.3481553119113957
aF0.3481553119113957
aF0.5
aF0.5
aF0.5
aF0.5
aF0.5
aF0.5
aF0.5
aF0.5
aF0.5
aF0.5
aF0.5
aF0.5
aF0.43643578047198478
aF0.43643578047198478
aF0.6546536707079772
aF0.43643578047198478
aF0.28867513459481292
aF0.86602540378443871
aF0.28867513459481292
aF0.28867513459481292
aF0.6546536707079772
aF0.43643578047198478
aF0.43643578047198478
aF0.43643578047198478
aF0.28867513459481292
aF0.86602540378443871
aF0.28867513459481292
aF0.28867513459481292
aF0.5
aF0.5
aF0.5
aF0.5
aF0.3481553119113957
aF0.69631062382279141
aF0.5222329678670935
aF0.3481553119113957
aF0.42426406871192851
aF0.56568542494923801
aF0.56568542494923801
aF0.42426406871192851
aF0.5
aF0.5
aF0.5
aF0.5
aF0.6546536707079772
aF0.43643578047198478
aF0.43643578047198478
aF0.43643578047198478
aF0.43643578047198478
aF0.43643578047198478
aF0.43643578047198478
aF0.6546536707079772
aF0.44971901339751685
aF0.44971901339751685
aF0.37476584449793071
aF0.67457852009627528
aF0.44721359549995793
aF0.59628479399994394
aF0.59628479399994394
aF0.29814239699997197
aF0.41610680879443479
aF0.65388212810554047
aF0.4755506386222112
aF0.41610680879443479
aF0.48989794855663565
aF0.65319726474218087
aF0.40824829046386302
aF0.40824829046386302
aF0.47457899787624952
aF0.47457899787624952
aF0.56949479745149945
aF0.47457899787624952
aF0.36380343755449945
aF0.60633906259083248
aF0.36380343755449945
aF0.60633906259083248
aF0.40201512610368484
aF0.30151134457776363
aF0.50251890762960605
aF0.70352647068144847
aF0.457495710997814
aF0.457495710997814
aF0.457495710997814
aF0.60999428133041866
aF0.457495710997814
aF0.457495710997814
aF0.60999428133041866
aF0.457495710997814
aF0.6546536707079772
aF0.43643578047198478
aF0.43643578047198478
aF0.43643578047198478
aF0.5
aF0.5
aF0.5
aF0.5
aF0.5
aF0.5
aF0.5
aF0.5
aF0.42426406871192851
aF0.56568542494923801
aF0.42426406871192851
aF0.56568542494923801
aF0.5
aF0.5
aF0.5
aF0.5
aF0.60999428133041866
aF0.457495710997814
aF0.457495710997814
aF0.457495710997814
aF0.5
aF0.5
aF0.5
aF0.5
aF0.457495710997814
aF0.457495710997814
aF0.457495710997814
aF0.60999428133041866
aF0.46816458878452227
aF0.46816458878452227
aF0.58520573598065284
aF0.46816458878452227
aF0.58520573598065284
aF0.46816458878452227
aF0.46816458878452227
aF0.46816458878452227
aF0.4147806778921701
aF0.51847584736521268
aF0.62217101683825515
aF0.4147806778921701
aF0.5
aF0.5
aF0.5
aF0.5
aF0.3779644730092272
aF0.3779644730092272
aF0.3779644730092272
aF0.7559289460184544
aF0.457495710997814
aF0.457495710997814
aF0.60999428133041866
aF0.457495710997814
aF0.60999428133041866
aF0.457495710997814
aF0.457495710997814
aF0.457495710997814
aF0.5
aF0.5
aF0.5
aF0.5
aF0.70710678118654746
aF0
aF0
aF0.70710678118654746
aF0.5
aF0.5
aF0.5
aF0.5
aF0.5
aF0.5
aF0.5
aF0.5
aF0.5
aF0.5
aF0.5
aF0.5
aF0.3779644730092272
aF0.3779644730092272
aF0.3779644730092272
aF0.7559289460184544
aF0.41602514716892186
aF0.41602514716892186
aF0.41602514716892186
aF0.69337524528153649
aF0.5
aF0.5
aF0.5
aF0.5
aF0.41602514716892186
aF0.41602514716892186
aF0.69337524528153649
aF0.41602514716892186
aF0.47172817652486326
aF0.57655666019705509
aF0.47172817652486326
aF0.47172817652486326
aF0.43643578047198478
aF0.43643578047198478
aF0.6546536707079772
aF0.43643578047198478
aF0.46816458878452227
aF0.58520573598065284
aF0.46816458878452227
aF0.46816458878452227
aF0.5
aF0.5
aF0.5
aF0.5
aF0.5388159060803247
aF0.35921060405354982
aF0.5388159060803247
aF0.5388159060803247
aF0.3779644730092272
aF0.3779644730092272
aF0.3779644730092272
aF0.7559289460184544
aF0.31622776601683794
aF0.31622776601683794
aF0.63245553203367588
aF0.63245553203367588
aF0.5
aF0.5
aF0.5
aF0.5
aF0.52623481158421759
aF0.52623481158421759
aF0.26311740579210879
aF0.61394061351492046
aF0.49746833816309105
aF0.49746833816309105
aF0.56853524361496122
aF0.42640143271122088
aF0.39223227027636809
aF0.39223227027636809
aF0.58834840541455213
aF0.58834840541455213
aF0.35052374270219161
aF0.70104748540438322
aF0.40894436648589017
aF0.46736499026958878
aF0
aF0
aF0
aF1
aF0.457495710997814
aF0.60999428133041866
aF0.457495710997814
aF0.457495710997814
aF0.457495710997814
aF0.457495710997814
aF0.457495710997814
aF0.60999428133041866
aF0.457495710997814
aF0.457495710997814
aF0.457495710997814
aF0.60999428133041866
aF0.457495710997814
aF0.60999428133041866
aF0.457495710997814
aF0.457495710997814
aF0.5
aF0.5
aF0.5
aF0.5
aF0.5
aF0.5
aF0.5
aF0.5
aF0.4147806778921701
aF0.51847584736521268
aF0.62217101683825515
aF0.4147806778921701
aF0.4923659639173309
aF0.61545745489666359
aF0.3692744729379982
aF0.4923659639173309
aF0.52981294282601754
aF0.52981294282601754
aF0.39735970711951313
aF0.52981294282601754
aF0.46816458878452227
aF0.46816458878452227
aF0.46816458878452227
aF0.58520573598065284
aF0.35856858280031806
aF0.35856858280031806
aF0.71713716560063612
aF0.47809144373375745
aF0.46816458878452227
aF0.46816458878452227
aF0.58520573598065284
aF0.46816458878452227
aF0.52075564392329554
aF0.39056673294247163
aF0.6509445549041194
aF0.39056673294247163
aF0.457495710997814
aF0.457495710997814
aF0.457495710997814
aF0.60999428133041866
aF0.28867513459481292
aF0.86602540378443871
aF0.28867513459481292
aF0.28867513459481292
aF0.76834981992783236
aF0.32929277996907103
aF0.32929277996907103
aF0.43905703995876139
aF0.86602540378443871
aF0.28867513459481292
aF0.28867513459481292
aF0.28867513459481292
aF0
aF0
aF0.89442719099991586
aF0.44721359549995793
aF0.5163977794943222
aF0.2581988897471611
aF0.7745966692414834
aF0.2581988897471611
aF0.5
aF0.5
aF0.5
aF0.5
aF0.457495710997814
aF0.60999428133041866
aF0.457495710997814
aF0.457495710997814
aF0.47140452079103173
aF0.23570226039551587
aF0.47140452079103173
aF0.70710678118654757
aF0.52981294282601754
aF0.52981294282601754
aF0.39735970711951313
aF0.52981294282601754
aF0.41602514716892186
aF0.41602514716892186
aF0.41602514716892186
aF0.69337524528153649
aF0.56568542494923801
aF0.56568542494923801
aF0.42426406871192851
aF0.42426406871192851
aF0.5
aF0.5
aF0.5
aF0.5
aF0.43643578047198478
aF0.6546536707079772
aF0.43643578047198478
aF0.43643578047198478
aF0.63245553203367588
aF0.31622776601683794
aF0.31622776601683794
aF0.63245553203367588
aF0.60999428133041866
aF0.457495710997814
aF0.457495710997814
aF0.457495710997814
aF0.44172610429938614
aF0.55215763037423271
aF0.55215763037423271
aF0.44172610429938614
aF0.57932412202165751
aF0.41380294430118397
aF0.49656353316142077
aF0.49656353316142077
aF0.86266218562750729
aF0.32349831961031522
aF0.21566554640687682
aF0.32349831961031522
aF0.44172610429938614
aF0.55215763037423271
aF0.44172610429938614
aF0.55215763037423271
aF0.69631062382279141
aF0.5222329678670935
aF0.3481553119113957
aF0.3481553119113957
aF0.5388159060803247
aF0.5388159060803247
aF0.5388159060803247
aF0.35921060405354982
aF0.58834840541455213
aF0.58834840541455213
aF0.39223227027636809
aF0.39223227027636809
aF0.55215763037423271
aF0.44172610429938614
aF0.44172610429938614
aF0.55215763037423271
aF0.46816458878452227
aF0.46816458878452227
aF0.46816458878452227
aF0.58520573598065284
aF0.52981294282601754
aF0.39735970711951313
aF0.52981294282601754
aF0.52981294282601754
aF0.5
aF0.5
aF0.5
aF0.5
aF0.5
aF0.5
aF0.5
aF0.5
aF0.44172610429938614
aF0.44172610429938614
aF0.55215763037423271
aF0.55215763037423271
aF0.5
aF0.5
aF0.5
aF0.5
aF0.47457899787624952
aF0.47457899787624952
aF0.47457899787624952
aF0.56949479745149945
aF0.457495710997814
aF0.60999428133041866
aF0.457495710997814
aF0.457495710997814
aF0.457495710997814
aF0.60999428133041866
aF0.457495710997814
aF0.457495710997814
aF0.52981294282601754
aF0.52981294282601754
aF0.52981294282601754
aF0.39735970711951313
aF0.3779644730092272
aF0.7559289460184544
aF0.3779644730092272
aF0.3779644730092272
aF0.3779644730092272
aF0.7559289460184544
aF0.3779644730092272
aF0.3779644730092272
aF0.32929277996907103
aF0.32929277996907103
aF0.76834981992783236
aF0.43905703995876139
aF0.61095980997191768
aF0.40730653998127841
aF0.40730653998127841
aF0.54307538664170452
aF0.76834981992783236
aF0.32929277996907103
aF0.43905703995876139
aF0.32929277996907103
aF0.43033148291193524
aF0.51639777949432231
aF0.43033148291193524
aF0.60246407607670927
aF0.5
aF0.5
aF0.5
aF0.5
aF0.5
aF0.5
aF0.5
aF0.5
aF0.6804138174397717
aF0.54433105395181736
aF0.27216552697590868
aF0.40824829046386302
aF0.51847584736521268
aF0.62217101683825515
aF0.4147806778921701
aF0.4147806778921701
aF0.4147806778921701
aF0.62217101683825515
aF0.4147806778921701
aF0.51847584736521268
aF0.4950737714883372
aF0.4950737714883372
aF0.59408852578600457
aF0.39605901719066977
aF0.60633906259083248
aF0.36380343755449945
aF0.60633906259083248
aF0.36380343755449945
aF0.41931393468876732
aF0.52414241836095921
aF0.52414241836095921
aF0.52414241836095921
aF0.5
aF0.5
aF0.5
aF0.5
aF0.5
aF0.5
aF0.5
aF0.5
aF0.47140452079103173
aF0.23570226039551587
aF0.47140452079103173
aF0.70710678118654757
aF0.5
aF0.5
aF0.5
aF0.5
aF0.60999428133041866
aF0.457495710997814
aF0.457495710997814
aF0.457495710997814
aF0.43643578047198478
aF0.6546536707079772
aF0.43643578047198478
aF0.43643578047198478
aF0.39223227027636809
aF0.58834840541455213
aF0.39223227027636809
aF0.58834840541455213
aF0.35007002100700241
aF0.4900980294098034
aF0.4900980294098034
aF0.63012603781260434
aF0.457495710997814
aF0.60999428133041866
aF0.457495710997814
aF0.457495710997814
aF0.51847584736521268
aF0.62217101683825515
aF0.4147806778921701
aF0.4147806778921701
aF0.45584230583855179
aF0.45584230583855179
aF0.34188172937891381
aF0.68376345875782762
aF0.6546536707079772
aF0.43643578047198478
aF0.43643578047198478
aF0.43643578047198478
aF0.56568542494923801
aF0.56568542494923801
aF0.42426406871192851
aF0.42426406871192851
aF0.5
aF0.5
aF0.5
aF0.5
aF0.7559289460184544
aF0.3779644730092272
aF0.3779644730092272
aF0.3779644730092272
aF0.43643578047198478
aF0.43643578047198478
aF0.6546536707079772
aF0.43643578047198478
aF0.5
aF0.5
aF0.5
aF0.5
aF0.4950737714883372
aF0.59408852578600457
aF0.4950737714883372
aF0.39605901719066977
aF0.60999428133041866
aF0.457495710997814
aF0.457495710997814
aF0.457495710997814
aF0.35921060405354982
aF0.5388159060803247
aF0.5388159060803247
aF0.5388159060803247
aF0.6804138174397717
aF0.27216552697590868
aF0.40824829046386302
aF0.54433105395181736
aF0.55470019622522915
aF0.27735009811261457
aF0.55470019622522915
aF0.55470019622522915
aF0.457495710997814
aF0.457495710997814
aF0.60999428133041866
aF0.457495710997814
aF0.5
aF0.5
aF0.5
aF0.5
aF0.6546536707079772
aF0.43643578047198478
aF0.43643578047198478
aF0.43643578047198478
aF0.51847584736521268
aF0.4147806778921701
aF0.4147806778921701
aF0.62217101683825515
aF0.6546536707079772
aF0.43643578047198478
aF0.43643578047198478
aF0.43643578047198478
aF0.5
aF0.5
aF0.5
aF0.5
aF0.5
aF0.5
aF0.5
aF0.5
aF0.5
aF0.5
aF0.5
aF0.5
aF0.6509445549041194
aF0.52075564392329554
aF0.39056673294247163
aF0.39056673294247163
aF0.46816458878452227
aF0.46816458878452227
aF0.46816458878452227
aF0.58520573598065284
aF0.63245553203367588
aF0.63245553203367588
aF0.31622776601683794
aF0.31622776601683794
aF0.5388159060803247
aF0.35921060405354982
aF0.5388159060803247
aF0.5388159060803247
aF0
aF0.70710678118654746
aF0
aF0.70710678118654746
aF0.43643578047198478
aF0.43643578047198478
aF0.6546536707079772
aF0.43643578047198478
aF0.3779644730092272
aF0.3779644730092272
aF0.7559289460184544
aF0.3779644730092272
aF0.4923659639173309
aF0.4923659639173309
aF0.61545745489666359
aF0.3692744729379982
aF0.5
aF0.5
aF0.5
aF0.5
aF0.44172610429938614
aF0.55215763037423271
aF0.55215763037423271
aF0.44172610429938614
aF0.39735970711951313
aF0.52981294282601754
aF0.52981294282601754
aF0.52981294282601754
aF0.48666426339228763
aF0.32444284226152509
aF0.64888568452305018
aF0.48666426339228763
aF0.52414241836095921
aF0.41931393468876732
aF0.52414241836095921
aF0.52414241836095921
aF0.58817169767504618
aF0.51465023546566535
aF0.44112877325628463
aF0.44112877325628463
aF0.39605901719066977
aF0.4950737714883372
aF0.4950737714883372
aF0.59408852578600457
aF0.3779644730092272
aF0.3779644730092272
aF0.3779644730092272
aF0.7559289460184544
aF0.39223227027636809
aF0.58834840541455213
aF0.39223227027636809
aF0.58834840541455213
aF0.43643578047198478
aF0.43643578047198478
aF0.6546536707079772
aF0.43643578047198478
aF0.5
aF0.5
aF0.5
aF0.5
aF0.69337524528153649
aF0.41602514716892186
aF0.41602514716892186
aF0.41602514716892186
aF0.457495710997814
aF0.60999428133041866
aF0.457495710997814
aF0.457495710997814
aF0.5
aF0.5
aF0.5
aF0.5
aF0.52414241836095921
aF0.52414241836095921
aF0.52414241836095921
aF0.41931393468876732
aF0.5163977794943222
aF0.2581988897471611
aF0.2581988897471611
aF0.7745966692414834
aF0.28867513459481292
aF0.86602540378443871
aF0.28867513459481292
aF0.28867513459481292
aF0.55215763037423271
aF0.55215763037423271
aF0.44172610429938614
aF0.44172610429938614
aF0.7559289460184544
aF0.3779644730092272
aF0.3779644730092272
aF0.3779644730092272
aF0.41602514716892186
aF0.41602514716892186
aF0.69337524528153649
aF0.41602514716892186
aF0.6546536707079772
aF0.43643578047198478
aF0.43643578047198478
aF0.43643578047198478
aF0.5
aF0.5
aF0.5
aF0.5
aF0.14586499149789456
aF0.43759497449368367
aF0.87518994898736735
aF0.14586499149789456
aF0.5
aF0.5
aF0.5
aF0.5
aF0.3779644730092272
aF0.7559289460184544
aF0.3779644730092272
aF0.3779644730092272
aF0.5
aF0.5
aF0.5
aF0.5
aF0.457495710997814
aF0.457495710997814
aF0.457495710997814
aF0.60999428133041866
aF0.5
aF0.5
aF0.5
aF0.5
aF0.49613893835683387
aF0.37210420376762537
aF0.24806946917841693
aF0.74420840753525075
aF0.5
aF0.5
aF0.5
aF0.5
aF0.56949479745149945
aF0.47457899787624952
aF0.47457899787624952
aF0.47457899787624952
aF0.52075564392329554
aF0.6509445549041194
aF0.39056673294247163
aF0.39056673294247163
aF0.56568542494923801
aF0.56568542494923801
aF0.42426406871192851
aF0.42426406871192851
aF0.42426406871192851
aF0.56568542494923801
aF0.42426406871192851
aF0.56568542494923801
aF0.55215763037423271
aF0.55215763037423271
aF0.44172610429938614
aF0.44172610429938614
aF0.457495710997814
aF0.457495710997814
aF0.60999428133041866
aF0.457495710997814
aF0.26261286571944509
aF0.39391929857916763
aF0.39391929857916763
aF0.78783859715833526
aF0.5
aF0.5
aF0.5
aF0.5
aF0.5
aF0.5
aF0.5
aF0.5
aF0.61545745489666359
aF0.4923659639173309
aF0.4923659639173309
aF0.3692744729379982
aF0.56568542494923801
aF0.56568542494923801
aF0.42426406871192851
aF0.42426406871192851
aF0.46816458878452227
aF0.46816458878452227
aF0.58520573598065284
aF0.46816458878452227
aF0.47457899787624952
aF0.47457899787624952
aF0.47457899787624952
aF0.56949479745149945
aF0.60999428133041866
aF0.457495710997814
aF0.457495710997814
aF0.457495710997814
aF0.7559289460184544
aF0.3779644730092272
aF0.3779644730092272
aF0.3779644730092272
aF0.5
aF0.5
aF0.5
aF0.5
aF0.457495710997814
aF0.60999428133041866
aF0.457495710997814
aF0.457495710997814
aF0.7559289460184544
aF0.3779644730092272
aF0.3779644730092272
aF0.3779644730092272
aF0.35856858280031806
aF0.35856858280031806
aF0.47809144373375745
aF0.71713716560063612
aF0.39223227027636809
aF0.39223227027636809
aF0.58834840541455213
aF0.58834840541455213
aF0.36514837167011072
aF0.73029674334022143
aF0.18257418583505536
aF0.54772255750516607
aF0.5
aF0.5
aF0.5
aF0.5
aF0.41602514716892186
aF0.41602514716892186
aF0.41602514716892186
aF0.69337524528153649
aF0.52981294282601754
aF0.39735970711951313
aF0.52981294282601754
aF0.52981294282601754
aF0.5
aF0.5
aF0.5
aF0.5
aF0.5
aF0.5
aF0.5
aF0.5
aF0.5
aF0.5
aF0.5
aF0.5
aF0.5
aF0.5
aF0.5
aF0.5
aF0.5
aF0.5
aF0.5
aF0.5
aF0.58834840541455213
aF0.58834840541455213
aF0.39223227027636809
aF0.39223227027636809
aF0.5
aF0.5
aF0.5
aF0.5
aF0.5
aF0.5
aF0.5
aF0.5
aF0.69337524528153649
aF0.41602514716892186
aF0.41602514716892186
aF0.41602514716892186
aF0.5
aF0.5
aF0.5
aF0.5
aF0.39223227027636809
aF0.58834840541455213
aF0.58834840541455213
aF0.39223227027636809
aF0.43759497449368367
aF0.29172998299578912
aF0.43759497449368367
aF0.72932495748947279
aF0.54433105395181736
aF0.27216552697590868
aF0.6804138174397717
aF0.40824829046386302
aF0.47457899787624952
aF0.47457899787624952
aF0.47457899787624952
aF0.56949479745149945
aF0.56568542494923801
aF0.42426406871192851
aF0.42426406871192851
aF0.56568542494923801
aF0.457495710997814
aF0.457495710997814
aF0.60999428133041866
aF0.457495710997814
aF0.46816458878452227
aF0.46816458878452227
aF0.46816458878452227
aF0.58520573598065284
aF0.55470019622522915
aF0.55470019622522915
aF0.27735009811261457
aF0.55470019622522915
aF0.63245553203367588
aF0.31622776601683794
aF0.63245553203367588
aF0.31622776601683794
aF0.46816458878452227
aF0.46816458878452227
aF0.46816458878452227
aF0.58520573598065284
aF0.46816458878452227
aF0.58520573598065284
aF0.46816458878452227
aF0.46816458878452227
aF0.44901325506693729
aF0.44901325506693729
aF0.62861855709371217
aF0.44901325506693729
aF0.46816458878452227
aF0.46816458878452227
aF0.58520573598065284
aF0.46816458878452227
aF0.5
aF0.5
aF0.5
aF0.5
aF0.58834840541455213
aF0.39223227027636809
aF0.39223227027636809
aF0.58834840541455213
aF0.56568542494923801
aF0.42426406871192851
aF0.42426406871192851
aF0.56568542494923801
aF0.39223227027636809
aF0.58834840541455213
aF0.58834840541455213
aF0.39223227027636809
aF0.52075564392329554
aF0.39056673294247163
aF0.6509445549041194
aF0.39056673294247163
aF0.58834840541455213
aF0.39223227027636809
aF0.58834840541455213
aF0.39223227027636809
aF0.18257418583505536
aF0.54772255750516607
aF0.36514837167011072
aF0.73029674334022143
aF0.5
aF0.5
aF0.5
aF0.5
aF0.5
aF0.5
aF0.5
aF0.5
aF0.5
aF0.5
aF0.5
aF0.5
aF0.5
aF0.5
aF0.5
aF0.5
aF0.5
aF0.5
aF0.5
aF0.5
aF0.5
aF0.5
aF0.5
aF0.5
aF0.5388159060803247
aF0.35921060405354982
aF0.5388159060803247
aF0.5388159060803247
aF0.5
aF0.5
aF0.5
aF0.5
aF0.60999428133041866
aF0.457495710997814
aF0.457495710997814
aF0.457495710997814
aF0.56568542494923801
aF0.42426406871192851
aF0.42426406871192851
aF0.56568542494923801
aF0.5
aF0.5
aF0.5
aF0.5
aF0.457495710997814
aF0.60999428133041866
aF0.457495710997814
aF0.457495710997814
aF0.4147806778921701
aF0.62217101683825515
aF0.51847584736521268
aF0.4147806778921701
aF0.3779644730092272
aF0.3779644730092272
aF0.3779644730092272
aF0.7559289460184544
aF0.43643578047198478
aF0.43643578047198478
aF0.43643578047198478
aF0.6546536707079772
aF0.45584230583855179
aF0.68376345875782762
aF0.34188172937891381
aF0.45584230583855179
aF0.43643578047198478
aF0.43643578047198478
aF0.43643578047198478
aF0.6546536707079772
aF0.457495710997814
aF0.457495710997814
aF0.60999428133041866
aF0.457495710997814
aF0.56568542494923801
aF0.42426406871192851
aF0.56568542494923801
aF0.42426406871192851
aF0.43643578047198478
aF0.6546536707079772
aF0.43643578047198478
aF0.43643578047198478
aF0.69631062382279141
aF0.3481553119113957
aF0.5222329678670935
aF0.3481553119113957
aF0.5
aF0.5
aF0.5
aF0.5
aF0.3779644730092272
aF0.3779644730092272
aF0.7559289460184544
aF0.3779644730092272
aF0.56568542494923801
aF0.56568542494923801
aF0.42426406871192851
aF0.42426406871192851
aF0.46816458878452227
aF0.46816458878452227
aF0.58520573598065284
aF0.46816458878452227
aF0.457495710997814
aF0.457495710997814
aF0.457495710997814
aF0.60999428133041866
aF0.39056673294247163
aF0.52075564392329554
aF0.6509445549041194
aF0.39056673294247163
aF0.44901325506693729
aF0.44901325506693729
aF0.44901325506693729
aF0.62861855709371217
aF0.69337524528153649
aF0.41602514716892186
aF0.41602514716892186
aF0.41602514716892186
aF0.5
aF0.5
aF0.5
aF0.5
aF0.38851434494290565
aF0.67990010365008491
aF0.38851434494290565
aF0.48564293117863205
aF0.54554472558998102
aF0.3273268353539886
aF0.54554472558998102
aF0.54554472558998102
aF0.86602540378443871
aF0.28867513459481292
aF0.28867513459481292
aF0.28867513459481292
aF0.5388159060803247
aF0.5388159060803247
aF0.35921060405354982
aF0.5388159060803247
aF0.46875467112769753
aF0.33482476509121251
aF0.66964953018242501
aF0.46875467112769753
aF0.52414241836095921
aF0.52414241836095921
aF0.52414241836095921
aF0.41931393468876732
aF0.7559289460184544
aF0.3779644730092272
aF0.3779644730092272
aF0.3779644730092272
aF0.43643578047198478
aF0.6546536707079772
aF0.43643578047198478
aF0.43643578047198478
aF0.59408852578600457
aF0.4950737714883372
aF0.39605901719066977
aF0.4950737714883372
aF0.46816458878452227
aF0.46816458878452227
aF0.46816458878452227
aF0.58520573598065284
aF0.47885213068057331
aF0.55866081912733556
aF0.47885213068057331
aF0.47885213068057331
aF0.52414241836095921
aF0.52414241836095921
aF0.52414241836095921
aF0.41931393468876732
aF0.39605901719066977
aF0.4950737714883372
aF0.4950737714883372
aF0.59408852578600457
aF0.457495710997814
aF0.457495710997814
aF0.60999428133041866
aF0.457495710997814
aF0.44172610429938614
aF0.55215763037423271
aF0.55215763037423271
aF0.44172610429938614
aF0.46816458878452227
aF0.46816458878452227
aF0.46816458878452227
aF0.58520573598065284
aF0.5
aF0.5
aF0.5
aF0.5
aF0.46816458878452227
aF0.46816458878452227
aF0.46816458878452227
aF0.58520573598065284
aF0.43643578047198478
aF0.6546536707079772
aF0.43643578047198478
aF0.43643578047198478
aF0.5
aF0.5
aF0.5
aF0.5
aF0.31622776601683794
aF0.63245553203367588
aF0.31622776601683794
aF0.63245553203367588
aF0.46625240412015689
aF0.37300192329612553
aF0.46625240412015689
aF0.65275336576821963
aF0.36380343755449945
aF0.36380343755449945
aF0.60633906259083248
aF0.60633906259083248
aF0.44721359549995793
aF0.59628479399994394
aF0.59628479399994394
aF0.29814239699997197
aF0.5
aF0.5
aF0.5
aF0.5
aF0.43643578047198478
aF0.43643578047198478
aF0.6546536707079772
aF0.43643578047198478
aF0.7559289460184544
aF0.3779644730092272
aF0.3779644730092272
aF0.3779644730092272
aF0.60999428133041866
aF0.457495710997814
aF0.457495710997814
aF0.457495710997814
aF0.60246407607670927
aF0.51639777949432231
aF0.43033148291193524
aF0.43033148291193524
aF0.52414241836095921
aF0.52414241836095921
aF0.41931393468876732
aF0.52414241836095921
aF0.6509445549041194
aF0.52075564392329554
aF0.39056673294247163
aF0.39056673294247163
aF0.41602514716892186
aF0.41602514716892186
aF0.69337524528153649
aF0.41602514716892186
aF0.457495710997814
aF0.457495710997814
aF0.60999428133041866
aF0.457495710997814
aF0.44172610429938614
aF0.44172610429938614
aF0.55215763037423271
aF0.55215763037423271
aF0.39223227027636809
aF0.58834840541455213
aF0.58834840541455213
aF0.39223227027636809
aF0.58834840541455213
aF0.39223227027636809
aF0.39223227027636809
aF0.58834840541455213
aF0.56568542494923801
aF0.42426406871192851
aF0.56568542494923801
aF0.42426406871192851
aF0.52981294282601754
aF0.52981294282601754
aF0.39735970711951313
aF0.52981294282601754
aF0.30860669992418382
aF0.30860669992418382
aF0.46291004988627571
aF0.77151674981045948
aF0.4923659639173309
aF0.61545745489666359
aF0.3692744729379982
aF0.4923659639173309
aF0.5222329678670935
aF0.3481553119113957
aF0.3481553119113957
aF0.69631062382279141
aF0.60633906259083248
aF0.60633906259083248
aF0.36380343755449945
aF0.36380343755449945
aF0.58834840541455213
aF0.39223227027636809
aF0.58834840541455213
aF0.39223227027636809
aF0.41602514716892186
aF0.69337524528153649
aF0.41602514716892186
aF0.41602514716892186
aF0.4950737714883372
aF0.39605901719066977
aF0.59408852578600457
aF0.4950737714883372
aF0.43643578047198478
aF0.6546536707079772
aF0.43643578047198478
aF0.43643578047198478
aF0.91766293548224698
aF0.22941573387056174
aF0.22941573387056174
aF0.22941573387056174
aF0.23570226039551587
aF0.70710678118654757
aF0.47140452079103173
aF0.47140452079103173
aF0.5
aF0.5
aF0.5
aF0.5
aF0.78783859715833526
aF0.26261286571944509
aF0.39391929857916763
aF0.39391929857916763
aF0.52135600172714303
aF0.5792844463634923
aF0.52135600172714303
aF0.34757066781809537
aF0.55215763037423271
aF0.55215763037423271
aF0.44172610429938614
aF0.44172610429938614
aF0.43033148291193524
aF0.60246407607670927
aF0.51639777949432231
aF0.43033148291193524
aF0.52026598171447191
aF0.52026598171447191
aF0.52026598171447191
aF0.43355498476205995
aF0.5
aF0.5
aF0.5
aF0.5
aF0.51745488966820097
aF0.51745488966820097
aF0.44353276257274371
aF0.51745488966820097
aF0.5
aF0.5
aF0.5
aF0.5
aF0.29172998299578912
aF0.43759497449368367
aF0.43759497449368367
aF0.72932495748947279
aF0.58834840541455213
aF0.58834840541455213
aF0.39223227027636809
aF0.39223227027636809
aF0.457495710997814
aF0.457495710997814
aF0.60999428133041866
aF0.457495710997814
aF0.457495710997814
aF0.60999428133041866
aF0.457495710997814
aF0.457495710997814
aF0.7559289460184544
aF0.3779644730092272
aF0.3779644730092272
aF0.3779644730092272
aF0.63245553203367588
aF0.31622776601683794
aF0.31622776601683794
aF0.63245553203367588
aF0.31622776601683794
aF0.31622776601683794
aF0.63245553203367588
aF0.63245553203367588
aF0.67419986246324204
aF0.13483997249264842
aF0.26967994498529685
aF0.67419986246324204
aF0.42426406871192851
aF0.56568542494923801
aF0.42426406871192851
aF0.56568542494923801
aF0.39056673294247163
aF0.52075564392329554
aF0.39056673294247163
aF0.6509445549041194
aF0.55215763037423271
aF0.44172610429938614
aF0.55215763037423271
aF0.44172610429938614
aF0.46625240412015689
aF0.65275336576821963
aF0.37300192329612553
aF0.46625240412015689
aF0.3481553119113957
aF0.69631062382279141
aF0.3481553119113957
aF0.5222329678670935
aF0.457495710997814
aF0.457495710997814
aF0.457495710997814
aF0.60999428133041866
aF0.5388159060803247
aF0.35921060405354982
aF0.5388159060803247
aF0.5388159060803247
aF0.5
aF0.5
aF0.5
aF0.5
aF0.62217101683825515
aF0.4147806778921701
aF0.51847584736521268
aF0.4147806778921701
aF0.457495710997814
aF0.457495710997814
aF0.60999428133041866
aF0.457495710997814
aF0.46816458878452227
aF0.58520573598065284
aF0.46816458878452227
aF0.46816458878452227
aF0.34412360080584259
aF0.80295506854696608
aF0.34412360080584259
aF0.34412360080584259
aF0.5
aF0.5
aF0.5
aF0.5
aF0.5
aF0.5
aF0.5
aF0.5
aF0.47457899787624952
aF0.56949479745149945
aF0.47457899787624952
aF0.47457899787624952
aF0.69631062382279141
aF0.5222329678670935
aF0.3481553119113957
aF0.3481553119113957
aF0.44172610429938614
aF0.55215763037423271
aF0.44172610429938614
aF0.55215763037423271
aF0.4923659639173309
aF0.4923659639173309
aF0.3692744729379982
aF0.61545745489666359
aF0.49805824509175228
aF0.43580096445528327
aF0.5603155257282213
aF0.49805824509175228
aF0.70710678118654757
aF0.23570226039551587
aF0.47140452079103173
aF0.47140452079103173
aF0.46291004988627571
aF0.77151674981045948
aF0.30860669992418382
aF0.30860669992418382
aF0.5
aF0.5
aF0.5
aF0.5
aF0.47885213068057331
aF0.47885213068057331
aF0.55866081912733556
aF0.47885213068057331
aF0.48189987357505998
aF0.48189987357505998
aF0.55074271265721142
aF0.48189987357505998
aF0.5
aF0.5
aF0.5
aF0.5
aF0.52981294282601754
aF0.52981294282601754
aF0.39735970711951313
aF0.52981294282601754
aF0.4923659639173309
aF0.3692744729379982
aF0.4923659639173309
aF0.61545745489666359
aF0.42426406871192851
aF0.42426406871192851
aF0.56568542494923801
aF0.56568542494923801
aF0.72932495748947279
aF0.43759497449368367
aF0.29172998299578912
aF0.43759497449368367
aF0.59628479399994394
aF0.44721359549995793
aF0.59628479399994394
aF0.29814239699997197
aF0.457495710997814
aF0.457495710997814
aF0.60999428133041866
aF0.457495710997814
aF0.43033148291193524
aF0.43033148291193524
aF0.60246407607670927
aF0.51639777949432231
aF0.5
aF0.5
aF0.5
aF0.5
aF0.5
aF0.5
aF0.5
aF0.5
aF0.58834840541455213
aF0.39223227027636809
aF0.39223227027636809
aF0.58834840541455213
aF0.41602514716892186
aF0.41602514716892186
aF0.41602514716892186
aF0.69337524528153649
aF0.23570226039551587
aF0.70710678118654757
aF0.47140452079103173
aF0.47140452079103173
aF0.54321447625511121
aF0.45267873021259264
aF0.45267873021259264
aF0.54321447625511121
aF0.5
aF0.5
aF0.5
aF0.5
aF0.5
aF0.5
aF0.5
aF0.5
aF0.5
aF0.5
aF0.5
aF0.5
aF0.56568542494923801
aF0.42426406871192851
aF0.56568542494923801
aF0.42426406871192851
aF0.5
aF0.5
aF0.5
aF0.5
aF0.38851434494290565
aF0.38851434494290565
aF0.48564293117863205
aF0.67990010365008491
aF0.43643578047198478
aF0.43643578047198478
aF0.6546536707079772
aF0.43643578047198478
aF0.5
aF0.5
aF0.5
aF0.5
aF0.5
aF0.5
aF0.5
aF0.5
aF0.5
aF0.5
aF0.5
aF0.5
aF0.39223227027636809
aF0.58834840541455213
aF0.58834840541455213
aF0.39223227027636809
aF0.27472112789737807
aF0.82416338369213415
aF0.41208169184606708
aF0.27472112789737807
aF0.57735026918962573
aF0.46188021535170054
aF0.34641016151377541
aF0.57735026918962573
aF0.44901325506693729
aF0.44901325506693729
aF0.44901325506693729
aF0.62861855709371217
aF0.58520573598065284
aF0.46816458878452227
aF0.46816458878452227
aF0.46816458878452227
aF0.457495710997814
aF0.457495710997814
aF0.457495710997814
aF0.60999428133041866
aF0.42426406871192851
aF0.56568542494923801
aF0.42426406871192851
aF0.56568542494923801
aF0.56568542494923801
aF0.42426406871192851
aF0.42426406871192851
aF0.56568542494923801
aF0.5
aF0.5
aF0.5
aF0.5
aF0.42426406871192851
aF0.56568542494923801
aF0.42426406871192851
aF0.56568542494923801
aF0.55470019622522915
aF0.55470019622522915
aF0.27735009811261457
aF0.55470019622522915
aF0.55215763037423271
aF0.44172610429938614
aF0.44172610429938614
aF0.55215763037423271
aF0.5
aF0.5
aF0.5
aF0.5
aF0.5
aF0.5
aF0.5
aF0.5
aF0.5
aF0.5
aF0.5
aF0.5
aF0.46816458878452227
aF0.58520573598065284
aF0.46816458878452227
aF0.46816458878452227
aF0.42426406871192851
aF0.42426406871192851
aF0.56568542494923801
aF0.56568542494923801
aF0.54321447625511121
aF0.45267873021259264
aF0.54321447625511121
aF0.45267873021259264
aF0.5
aF0.5
aF0.5
aF0.5
aF0.43759497449368367
aF0.43759497449368367
aF0.29172998299578912
aF0.72932495748947279
aF0.3779644730092272
aF0.3779644730092272
aF0.3779644730092272
aF0.7559289460184544
aF0.60633906259083248
aF0.36380343755449945
aF0.60633906259083248
aF0.36380343755449945
aF0
aF0.70710678118654746
aF0.70710678118654746
aF0
aF0.57735026918962573
aF0.46188021535170054
aF0.34641016151377541
aF0.57735026918962573
aF0.5388159060803247
aF0.5388159060803247
aF0.35921060405354982
aF0.5388159060803247
aF0.457495710997814
aF0.457495710997814
aF0.457495710997814
aF0.60999428133041866
aF0.5
aF0.5
aF0.5
aF0.5
aF0.39223227027636809
aF0.58834840541455213
aF0.39223227027636809
aF0.58834840541455213
aF0.5
aF0.5
aF0.5
aF0.5
aF0.5
aF0.5
aF0.5
aF0.5
aF0.5
aF0.5
aF0.5
aF0.5
aF0.58520573598065284
aF0.46816458878452227
aF0.46816458878452227
aF0.46816458878452227
aF0.42426406871192851
aF0.42426406871192851
aF0.56568542494923801
aF0.56568542494923801
aF0.48189987357505998
aF0.48189987357505998
aF0.55074271265721142
aF0.48189987357505998
aF0.46816458878452227
aF0.58520573598065284
aF0.46816458878452227
aF0.46816458878452227
aF0.5
aF0.5
aF0.5
aF0.5
aF0.28867513459481292
aF0.86602540378443871
aF0.28867513459481292
aF0.28867513459481292
aF0.41602514716892186
aF0.69337524528153649
aF0.41602514716892186
aF0.41602514716892186
aF0.3779644730092272
aF0.7559289460184544
aF0.3779644730092272
aF0.3779644730092272
aF0.44112877325628463
aF0.44112877325628463
aF0.51465023546566535
aF0.58817169767504618
aF0.46816458878452227
aF0.46816458878452227
aF0.46816458878452227
aF0.58520573598065284
aF0.55215763037423271
aF0.55215763037423271
aF0.44172610429938614
aF0.44172610429938614
aF0.43643578047198478
aF0.43643578047198478
aF0.6546536707079772
aF0.43643578047198478
aF0.56949479745149945
aF0.47457899787624952
aF0.47457899787624952
aF0.47457899787624952
aF0.21320071635561041
aF0.21320071635561041
aF0.85280286542244166
aF0.42640143271122083
aF0.56568542494923801
aF0.56568542494923801
aF0.42426406871192851
aF0.42426406871192851
aF0.39056673294247163
aF0.52075564392329554
aF0.39056673294247163
aF0.6509445549041194
aF0.54321447625511121
aF0.45267873021259264
aF0.45267873021259264
aF0.54321447625511121
aF0.5
aF0.5
aF0.5
aF0.5
aF0.60999428133041866
aF0.457495710997814
aF0.457495710997814
aF0.457495710997814
aF0.52981294282601754
aF0.52981294282601754
aF0.39735970711951313
aF0.52981294282601754
aF0.46816458878452227
aF0.58520573598065284
aF0.46816458878452227
aF0.46816458878452227
aF0.53215208419019144
aF0.46563307366641754
aF0.46563307366641754
aF0.53215208419019144
aF0.42426406871192851
aF0.56568542494923801
aF0.42426406871192851
aF0.56568542494923801
aF0.49656353316142077
aF0.49656353316142077
aF0.57932412202165751
aF0.41380294430118397
aF0.5222329678670935
aF0.3481553119113957
aF0.3481553119113957
aF0.69631062382279141
aF0.457495710997814
aF0.60999428133041866
aF0.457495710997814
aF0.457495710997814
aF0.52981294282601754
aF0.52981294282601754
aF0.39735970711951313
aF0.52981294282601754
aF0.5222329678670935
aF0.3481553119113957
aF0.3481553119113957
aF0.69631062382279141
aF0.31622776601683794
aF0.63245553203367588
aF0.63245553203367588
aF0.31622776601683794
aF0.58834840541455213
aF0.39223227027636809
aF0.58834840541455213
aF0.39223227027636809
aF0.47457899787624952
aF0.56949479745149945
aF0.47457899787624952
aF0.47457899787624952
aF0.457495710997814
aF0.60999428133041866
aF0.457495710997814
aF0.457495710997814
aF0.5
aF0.5
aF0.5
aF0.5
aF0.5
aF0.5
aF0.5
aF0.5
aF0.43643578047198478
aF0.43643578047198478
aF0.43643578047198478
aF0.6546536707079772
aF0.28867513459481292
aF0.28867513459481292
aF0.86602540378443871
aF0.28867513459481292
aF0.44172610429938614
aF0.55215763037423271
aF0.44172610429938614
aF0.55215763037423271
aF0.42426406871192851
aF0.56568542494923801
aF0.42426406871192851
aF0.56568542494923801
aF0.43643578047198478
aF0.6546536707079772
aF0.43643578047198478
aF0.43643578047198478
aF0.52026598171447191
aF0.43355498476205995
aF0.52026598171447191
aF0.52026598171447191
aF0.457495710997814
aF0.457495710997814
aF0.457495710997814
aF0.60999428133041866
aF0.5
aF0.5
aF0.5
aF0.5
aF0.5
aF0.5
aF0.5
aF0.5
aF0.46816458878452227
aF0.46816458878452227
aF0.46816458878452227
aF0.58520573598065284
aF0.43643578047198478
aF0.6546536707079772
aF0.43643578047198478
aF0.43643578047198478
aF0.48564293117863205
aF0.38851434494290565
aF0.67990010365008491
aF0.38851434494290565
aF0.55215763037423271
aF0.44172610429938614
aF0.44172610429938614
aF0.55215763037423271
aF0.52414241836095921
aF0.52414241836095921
aF0.41931393468876732
aF0.52414241836095921
aF0.54321447625511121
aF0.45267873021259264
aF0.54321447625511121
aF0.45267873021259264
aF0.5
aF0.5
aF0.5
aF0.5
aF0.55513611000270091
aF0.39652579285907208
aF0.55513611000270091
aF0.4758309514308865
aF0.457495710997814
aF0.60999428133041866
aF0.457495710997814
aF0.457495710997814
aF0.457495710997814
aF0.457495710997814
aF0.457495710997814
aF0.60999428133041866
aF0.5
aF0.5
aF0.5
aF0.5
aF0.43643578047198478
aF0.6546536707079772
aF0.43643578047198478
aF0.43643578047198478
aF0.3481553119113957
aF0.3481553119113957
aF0.69631062382279141
aF0.5222329678670935
aF0.5
aF0.5
aF0.5
aF0.5
aF0.31622776601683794
aF0.63245553203367588
aF0.63245553203367588
aF0.31622776601683794
aF0.46816458878452227
aF0.46816458878452227
aF0.46816458878452227
aF0.58520573598065284
aF0.5
aF0.5
aF0.5
aF0.5
aF0.43759497449368367
aF0.43759497449368367
aF0.72932495748947279
aF0.29172998299578912
aF0.43643578047198478
aF0.43643578047198478
aF0.6546536707079772
aF0.43643578047198478
aF0.5
aF0.5
aF0.5
aF0.5
aF0.58834840541455213
aF0.39223227027636809
aF0.58834840541455213
aF0.39223227027636809
aF0.56568542494923801
aF0.42426406871192851
aF0.42426406871192851
aF0.56568542494923801
aF0.69337524528153649
aF0.41602514716892186
aF0.41602514716892186
aF0.41602514716892186
aF0.40549911245444459
aF0.63721289099984146
aF0.46342755709079381
aF0.46342755709079381
aF0.55215763037423271
aF0.55215763037423271
aF0.44172610429938614
aF0.44172610429938614
aF0.56568542494923801
aF0.42426406871192851
aF0.56568542494923801
aF0.42426406871192851
aF0.58834840541455213
aF0.58834840541455213
aF0.39223227027636809
aF0.39223227027636809
aF0.457495710997814
aF0.457495710997814
aF0.60999428133041866
aF0.457495710997814
aF0.5
aF0.5
aF0.5
aF0.5
aF0.43643578047198478
aF0.43643578047198478
aF0.6546536707079772
aF0.43643578047198478
aF0.3779644730092272
aF0.7559289460184544
aF0.3779644730092272
aF0.3779644730092272
aF0.5
aF0.5
aF0.5
aF0.5
aF0.63245553203367588
aF0.63245553203367588
aF0.31622776601683794
aF0.31622776601683794
aF0.5
aF0.5
aF0.5
aF0.5
aF0.58520573598065284
aF0.46816458878452227
aF0.46816458878452227
aF0.46816458878452227
aF0.5
aF0.5
aF0.5
aF0.5
aF0.5
aF0.5
aF0.5
aF0.5
aF0.5388159060803247
aF0.5388159060803247
aF0.5388159060803247
aF0.35921060405354982
aF0.3779644730092272
aF0.3779644730092272
aF0.3779644730092272
aF0.7559289460184544
aF0.43643578047198478
aF0.6546536707079772
aF0.43643578047198478
aF0.43643578047198478
aF0.60999428133041866
aF0.457495710997814
aF0.457495710997814
aF0.457495710997814
aF0.69631062382279141
aF0.3481553119113957
aF0.3481553119113957
aF0.5222329678670935
aF0.457495710997814
aF0.457495710997814
aF0.457495710997814
aF0.60999428133041866
aF0.5
aF0.5
aF0.5
aF0.5
aF0.42426406871192851
aF0.56568542494923801
aF0.42426406871192851
aF0.56568542494923801
aF0.5
aF0.5
aF0.5
aF0.5
aF0.58520573598065284
aF0.46816458878452227
aF0.46816458878452227
aF0.46816458878452227
aF0.43643578047198478
aF0.43643578047198478
aF0.6546536707079772
aF0.43643578047198478
aF0.58834840541455213
aF0.39223227027636809
aF0.58834840541455213
aF0.39223227027636809
aF0.5
aF0.5
aF0.5
aF0.5
aF0.5
aF0.5
aF0.5
aF0.5
aF0.5
aF0.5
aF0.5
aF0.5
aF0.44172610429938614
aF0.55215763037423271
aF0.44172610429938614
aF0.55215763037423271
aF0.41602514716892186
aF0.41602514716892186
aF0.41602514716892186
aF0.69337524528153649
aF0.46816458878452227
aF0.46816458878452227
aF0.46816458878452227
aF0.58520573598065284
aF0.5
aF0.5
aF0.5
aF0.5
aF0.5388159060803247
aF0.5388159060803247
aF0.5388159060803247
aF0.35921060405354982
aF0.46816458878452227
aF0.46816458878452227
aF0.46816458878452227
aF0.58520573598065284
aF0.46291004988627571
aF0.77151674981045948
aF0.30860669992418382
aF0.30860669992418382
aF0.42426406871192851
aF0.56568542494923801
aF0.56568542494923801
aF0.42426406871192851
aF0.50251890762960605
aF0.40201512610368484
aF0.30151134457776363
aF0.70352647068144847
aF0.5
aF0.5
aF0.5
aF0.5
aF0.43643578047198478
aF0.43643578047198478
aF0.6546536707079772
aF0.43643578047198478
aF0.44172610429938614
aF0.44172610429938614
aF0.55215763037423271
aF0.55215763037423271
aF0.54321447625511121
aF0.54321447625511121
aF0.45267873021259264
aF0.45267873021259264
aF0.6546536707079772
aF0.43643578047198478
aF0.43643578047198478
aF0.43643578047198478
aF0.60999428133041866
aF0.457495710997814
aF0.457495710997814
aF0.457495710997814
aF0.46816458878452227
aF0.58520573598065284
aF0.46816458878452227
aF0.46816458878452227
aF0.5
aF0.5
aF0.5
aF0.5
aF0.5
aF0.5
aF0.5
aF0.5
aF0.5
aF0.5
aF0.5
aF0.5
aF0.43643578047198478
aF0.43643578047198478
aF0.6546536707079772
aF0.43643578047198478
aF0.3779644730092272
aF0.3779644730092272
aF0.7559289460184544
aF0.3779644730092272
aF0.5
aF0.5
aF0.5
aF0.5
aF0
aF0
aF1
aF0
aF0.5
aF0.5
aF0.5
aF0.5
aF0.5388159060803247
aF0.5388159060803247
aF0.5388159060803247
aF0.35921060405354982
aF0.58834840541455213
aF0.58834840541455213
aF0.39223227027636809
aF0.39223227027636809
aF0.3779644730092272
aF0.7559289460184544
aF0.3779644730092272
aF0.3779644730092272
aF0.43643578047198478
aF0.43643578047198478
aF0.43643578047198478
aF0.6546536707079772
aF0.3779644730092272
aF0.7559289460184544
aF0.3779644730092272
aF0.3779644730092272
aF0.5
aF0.5
aF0.5
aF0.5
aF0.46816458878452227
aF0.58520573598065284
aF0.46816458878452227
aF0.46816458878452227
aF0.5
aF0.5
aF0.5
aF0.5
aF0.58834840541455213
aF0.58834840541455213
aF0.39223227027636809
aF0.39223227027636809
aF0.60999428133041866
aF0.457495710997814
aF0.457495710997814
aF0.457495710997814
aF0.41602514716892186
aF0.41602514716892186
aF0.69337524528153649
aF0.41602514716892186
aF0.55866081912733556
aF0.47885213068057331
aF0.47885213068057331
aF0.47885213068057331
aF0.47457899787624952
aF0.56949479745149945
aF0.47457899787624952
aF0.47457899787624952
aF0.31622776601683794
aF0.63245553203367588
aF0.31622776601683794
aF0.63245553203367588
aF0.43643578047198478
aF0.43643578047198478
aF0.6546536707079772
aF0.43643578047198478
aF0.46816458878452227
aF0.58520573598065284
aF0.46816458878452227
aF0.46816458878452227
aF0.45584230583855179
aF0.34188172937891381
aF0.45584230583855179
aF0.68376345875782762
aF0.58834840541455213
aF0.39223227027636809
aF0.58834840541455213
aF0.39223227027636809
aF0.56949479745149945
aF0.47457899787624952
aF0.47457899787624952
aF0.47457899787624952
aF0.5
aF0.5
aF0.5
aF0.5
aF0.6546536707079772
aF0.43643578047198478
aF0.43643578047198478
aF0.43643578047198478
aF0.59408852578600457
aF0.4950737714883372
aF0.4950737714883372
aF0.39605901719066977
aF0.30151134457776363
aF0.70352647068144847
aF0.50251890762960605
aF0.40201512610368484
aF0.52981294282601754
aF0.52981294282601754
aF0.52981294282601754
aF0.39735970711951313
aF0.49656353316142077
aF0.41380294430118397
aF0.49656353316142077
aF0.57932412202165751
aF0.52981294282601754
aF0.39735970711951313
aF0.52981294282601754
aF0.52981294282601754
aF0.58834840541455213
aF0.39223227027636809
aF0.58834840541455213
aF0.39223227027636809
aF0.5
aF0.5
aF0.5
aF0.5
aF0.5
aF0.5
aF0.5
aF0.5
aF0.45584230583855179
aF0.45584230583855179
aF0.34188172937891381
aF0.68376345875782762
aF0.56568542494923801
aF0.42426406871192851
aF0.56568542494923801
aF0.42426406871192851
aF0.39223227027636809
aF0.58834840541455213
aF0.58834840541455213
aF0.39223227027636809
aF0.3779644730092272
aF0.3779644730092272
aF0.7559289460184544
aF0.3779644730092272
aF0.35921060405354982
aF0.5388159060803247
aF0.5388159060803247
aF0.5388159060803247
aF0.39056673294247163
aF0.52075564392329554
aF0.6509445549041194
aF0.39056673294247163
aF0.56949479745149945
aF0.47457899787624952
aF0.47457899787624952
aF0.47457899787624952
aF0.67990010365008491
aF0.38851434494290565
aF0.48564293117863205
aF0.38851434494290565
aF0.5
aF0.5
aF0.5
aF0.5
aF0.457495710997814
aF0.457495710997814
aF0.60999428133041866
aF0.457495710997814
aF0.5
aF0.5
aF0.5
aF0.5
aF0.5
aF0.5
aF0.5
aF0.5
aF0.44172610429938614
aF0.44172610429938614
aF0.55215763037423271
aF0.55215763037423271
aF0.34188172937891381
aF0.45584230583855179
aF0.45584230583855179
aF0.68376345875782762
aF0.42426406871192851
aF0.42426406871192851
aF0.56568542494923801
aF0.56568542494923801
aF0.5
aF0.5
aF0.5
aF0.5
aF0.54321447625511121
aF0.45267873021259264
aF0.45267873021259264
aF0.54321447625511121
aF0.4950737714883372
aF0.4950737714883372
aF0.39605901719066977
aF0.59408852578600457
aF0.5
aF0.5
aF0.5
aF0.5
aF0.457495710997814
aF0.60999428133041866
aF0.457495710997814
aF0.457495710997814
aF0.7559289460184544
aF0.3779644730092272
aF0.3779644730092272
aF0.3779644730092272
aF0.38851434494290565
aF0.48564293117863205
aF0.67990010365008491
aF0.38851434494290565
aF0.38851434494290565
aF0.38851434494290565
aF0.67990010365008491
aF0.48564293117863205
aF0.5
aF0.5
aF0.5
aF0.5
aF0.86602540378443871
aF0.28867513459481292
aF0.28867513459481292
aF0.28867513459481292
aF0.37267799624996495
aF0.67082039324993692
aF0.52174919474995085
aF0.37267799624996495
aF0.56949479745149945
aF0.47457899787624952
aF0.47457899787624952
aF0.47457899787624952
aF0.6509445549041194
aF0.39056673294247163
aF0.39056673294247163
aF0.52075564392329554
aF0.36661778755338326
aF0.29329423004270661
aF0.65991201759608986
aF0.58658846008541321
aF0.4147806778921701
aF0.62217101683825515
aF0.4147806778921701
aF0.51847584736521268
aF0.457495710997814
aF0.60999428133041866
aF0.457495710997814
aF0.457495710997814
aF0.56568542494923801
aF0.42426406871192851
aF0.42426406871192851
aF0.56568542494923801
aF0.457495710997814
aF0.60999428133041866
aF0.457495710997814
aF0.457495710997814
aF0.457495710997814
aF0.457495710997814
aF0.60999428133041866
aF0.457495710997814
aF0.457495710997814
aF0.60999428133041866
aF0.457495710997814
aF0.457495710997814
aF0.5
aF0.5
aF0.5
aF0.5
aF0.5
aF0.5
aF0.5
aF0.5
aF0.5
aF0.5
aF0.5
aF0.5
aF0.54321447625511121
aF0.54321447625511121
aF0.45267873021259264
aF0.45267873021259264
aF0.27735009811261457
aF0.55470019622522915
aF0.55470019622522915
aF0.55470019622522915
aF0.5
aF0.5
aF0.5
aF0.5
aF0.5
aF0.5
aF0.5
aF0.5
aF0.52414241836095921
aF0.41931393468876732
aF0.52414241836095921
aF0.52414241836095921
aF0.62360956446232352
aF0.35634832254989918
aF0.44543540318737396
aF0.53452248382484879
aF0.52026598171447191
aF0.52026598171447191
aF0.52026598171447191
aF0.43355498476205995
aF0.31448545101657549
aF0.31448545101657549
aF0.83862786937753464
aF0.31448545101657549
aF0.52026598171447191
aF0.52026598171447191
aF0.52026598171447191
aF0.43355498476205995
aF0.7980868844676221
aF0.39904344223381105
aF0.31923475378704885
aF0.31923475378704885
aF0.3779644730092272
aF0.3779644730092272
aF0.3779644730092272
aF0.7559289460184544
aF0.5
aF0.5
aF0.5
aF0.5
aF0.35634832254989918
aF0.44543540318737396
aF0.53452248382484879
aF0.62360956446232352
aF0.58817169767504618
aF0.44112877325628463
aF0.51465023546566535
aF0.44112877325628463
aF0.62861855709371217
aF0.44901325506693729
aF0.44901325506693729
aF0.44901325506693729
aF0.51639777949432231
aF0.43033148291193524
aF0.43033148291193524
aF0.60246407607670927
aF0.43033148291193524
aF0.51639777949432231
aF0.43033148291193524
aF0.60246407607670927
aF0.34503277967117713
aF0.69006555934235425
aF0.41403933560541256
aF0.48304589153964794
aF0.4950737714883372
aF0.4950737714883372
aF0.39605901719066977
aF0.59408852578600457
aF0.77151674981045948
aF0.30860669992418382
aF0.30860669992418382
aF0.46291004988627571
aF0.40824829046386302
aF0.48989794855663565
aF0.65319726474218087
aF0.40824829046386302
aF0.5
aF0.5
aF0.5
aF0.5
aF0.44112877325628463
aF0.51465023546566535
aF0.44112877325628463
aF0.58817169767504618
a.