(lp1
F0.5
aF0.5
aF0.5
aF0.5
aF0.5
aF0.5
aF0.5
aF0.5
aF0.39223227027636809
aF0.39223227027636809
aF0.58834840541455213
aF0.58834840541455213
aF0.457495710997814
aF0.457495710997814
aF0.60999428133041866
aF0.457495710997814
aF0.5
aF0.5
aF0.5
aF0.5
aF0.7559289460184544
aF0.3779644730092272
aF0.3779644730092272
aF0.3779644730092272
aF0.5
aF0.5
aF0.5
aF0.5
aF0.49153915231142431
aF0.32769276820761623
aF0.73730872846713646
aF0.32769276820761623
aF0.86602540378443871
aF0.28867513459481292
aF0.28867513459481292
aF0.28867513459481292
aF0.3779644730092272
aF0.3779644730092272
aF0.7559289460184544
aF0.3779644730092272
aFnan
aFnan
aFnan
aFnan
aF0.63245553203367588
aF0.63245553203367588
aF0.31622776601683794
aF0.31622776601683794
aF0.3692744729379982
aF0.4923659639173309
aF0.4923659639173309
aF0.61545745489666359
aF0.64715022892943397
aF0.55470019622522904
aF0.36980013081681939
aF0.36980013081681939
aF0.56568542494923801
aF0.42426406871192851
aF0.56568542494923801
aF0.42426406871192851
aF0.5
aF0.5
aF0.5
aF0.5
aF0.56568542494923801
aF0.42426406871192851
aF0.56568542494923801
aF0.42426406871192851
aF0.5
aF0.5
aF0.5
aF0.5
aF0.43905703995876139
aF0.32929277996907103
aF0.32929277996907103
aF0.76834981992783236
aF0.47809144373375745
aF0.71713716560063612
aF0.35856858280031806
aF0.35856858280031806
aF0.457495710997814
aF0.457495710997814
aF0.457495710997814
aF0.60999428133041866
aF0.5
aF0.5
aF0.5
aF0.5
aF0.7559289460184544
aF0.3779644730092272
aF0.3779644730092272
aF0.3779644730092272
aF0.5
aF0.5
aF0.5
aF0.5
aF0.47457899787624952
aF0.47457899787624952
aF0.47457899787624952
aF0.56949479745149945
aF0.46816458878452227
aF0.46816458878452227
aF0.58520573598065284
aF0.46816458878452227
aF0.72980044919976172
aF0.5212860351426869
aF0.31277162108561218
aF0.31277162108561218
aF0.58834840541455213
aF0.58834840541455213
aF0.39223227027636809
aF0.39223227027636809
aF0.43643578047198478
aF0.6546536707079772
aF0.43643578047198478
aF0.43643578047198478
aF0.6546536707079772
aF0.43643578047198478
aF0.43643578047198478
aF0.43643578047198478
aF0.5
aF0.5
aF0.5
aF0.5
aF0.5
aF0.5
aF0.5
aF0.5
aF0.41602514716892186
aF0.69337524528153649
aF0.41602514716892186
aF0.41602514716892186
aF0.5
aF0.5
aF0.5
aF0.5
aF0.3481553119113957
aF0.69631062382279141
aF0.5222329678670935
aF0.3481553119113957
aF0.55215763037423271
aF0.55215763037423271
aF0.44172610429938614
aF0.44172610429938614
aF0.457495710997814
aF0.457495710997814
aF0.457495710997814
aF0.60999428133041866
aF0.56568542494923801
aF0.42426406871192851
aF0.42426406871192851
aF0.56568542494923801
aF0.43643578047198478
aF0.43643578047198478
aF0.43643578047198478
aF0.6546536707079772
aF0.3779644730092272
aF0.3779644730092272
aF0.7559289460184544
aF0.3779644730092272
aF0.29172998299578912
aF0.43759497449368367
aF0.72932495748947279
aF0.43759497449368367
aF0.457495710997814
aF0.457495710997814
aF0.457495710997814
aF0.60999428133041866
aF0.39223227027636809
aF0.58834840541455213
aF0.39223227027636809
aF0.58834840541455213
aF0.39223227027636809
aF0.39223227027636809
aF0.58834840541455213
aF0.58834840541455213
aF0.7559289460184544
aF0.3779644730092272
aF0.3779644730092272
aF0.3779644730092272
aF0.39223227027636809
aF0.39223227027636809
aF0.58834840541455213
aF0.58834840541455213
aF0.39223227027636809
aF0.58834840541455213
aF0.39223227027636809
aF0.58834840541455213
aF0.58834840541455213
aF0.58834840541455213
aF0.39223227027636809
aF0.39223227027636809
aF0.48418202613504197
aF0.48418202613504197
aF0.48418202613504197
aF0.54470477940192219
aF0.457495710997814
aF0.457495710997814
aF0.60999428133041866
aF0.457495710997814
aF0.43643578047198478
aF0.43643578047198478
aF0.43643578047198478
aF0.6546536707079772
aF0.5
aF0.5
aF0.5
aF0.5
aF0.5
aF0.5
aF0.5
aF0.5
aF0.5
aF0.5
aF0.5
aF0.5
aF0.457495710997814
aF0.457495710997814
aF0.60999428133041866
aF0.457495710997814
aF0.46816458878452227
aF0.46816458878452227
aF0.58520573598065284
aF0.46816458878452227
aF0.6546536707079772
aF0.43643578047198478
aF0.43643578047198478
aF0.43643578047198478
aF0.7205766921228921
aF0.40032038451271784
aF0.40032038451271784
aF0.40032038451271784
aF0.6546536707079772
aF0.43643578047198478
aF0.43643578047198478
aF0.43643578047198478
aF0.52026598171447191
aF0.52026598171447191
aF0.52026598171447191
aF0.43355498476205995
aF0.69337524528153649
aF0.41602514716892186
aF0.41602514716892186
aF0.41602514716892186
aF0.457495710997814
aF0.457495710997814
aF0.457495710997814
aF0.60999428133041866
aF0.5
aF0.5
aF0.5
aF0.5
aF0.46816458878452227
aF0.58520573598065284
aF0.46816458878452227
aF0.46816458878452227
aF0.43643578047198478
aF0.43643578047198478
aF0.43643578047198478
aF0.6546536707079772
aF0.39223227027636809
aF0.58834840541455213
aF0.58834840541455213
aF0.39223227027636809
aF0.52981294282601754
aF0.39735970711951313
aF0.52981294282601754
aF0.52981294282601754
aF0.457495710997814
aF0.457495710997814
aF0.457495710997814
aF0.60999428133041866
aF0.5
aF0.5
aF0.5
aF0.5
aF0.5
aF0.5
aF0.5
aF0.5
aF0.5
aF0.5
aF0.5
aF0.5
aF0.44172610429938614
aF0.55215763037423271
aF0.44172610429938614
aF0.55215763037423271
aF0.46816458878452227
aF0.46816458878452227
aF0.46816458878452227
aF0.58520573598065284
aF0.5
aF0.5
aF0.5
aF0.5
aF0.5
aF0.5
aF0.5
aF0.5
aF0.69337524528153649
aF0.41602514716892186
aF0.41602514716892186
aF0.41602514716892186
aF0.43643578047198478
aF0.43643578047198478
aF0.43643578047198478
aF0.6546536707079772
aF0.5
aF0.5
aF0.5
aF0.5
aF0.60999428133041866
aF0.457495710997814
aF0.457495710997814
aF0.457495710997814
aF0.5
aF0.5
aF0.5
aF0.5
aF0.5
aF0.5
aF0.5
aF0.5
aF0.4147806778921701
aF0.62217101683825515
aF0.4147806778921701
aF0.51847584736521268
aF0.57735026918962573
aF0.57735026918962573
aF0.34641016151377541
aF0.46188021535170054
aF0.39223227027636809
aF0.58834840541455213
aF0.39223227027636809
aF0.58834840541455213
aF0.58834840541455213
aF0.39223227027636809
aF0.58834840541455213
aF0.39223227027636809
aF0.30860669992418382
aF0.30860669992418382
aF0.77151674981045948
aF0.46291004988627571
aF0.55866081912733556
aF0.47885213068057331
aF0.47885213068057331
aF0.47885213068057331
aF0.42426406871192851
aF0.56568542494923801
aF0.56568542494923801
aF0.42426406871192851
aF0.5
aF0.5
aF0.5
aF0.5
aF0.43905703995876139
aF0.32929277996907103
aF0.32929277996907103
aF0.76834981992783236
aF0.6546536707079772
aF0.43643578047198478
aF0.43643578047198478
aF0.43643578047198478
aF0.45267873021259264
aF0.54321447625511121
aF0.45267873021259264
aF0.54321447625511121
aF0.55866081912733556
aF0.47885213068057331
aF0.47885213068057331
aF0.47885213068057331
aF0.6509445549041194
aF0.39056673294247163
aF0.52075564392329554
aF0.39056673294247163
aF0.5
aF0.5
aF0.5
aF0.5
aF0.61545745489666359
aF0.3692744729379982
aF0.4923659639173309
aF0.4923659639173309
aF0.3779644730092272
aF0.3779644730092272
aF0.3779644730092272
aF0.7559289460184544
aF0.7745966692414834
aF0.2581988897471611
aF0.2581988897471611
aF0.5163977794943222
aF0.457495710997814
aF0.457495710997814
aF0.457495710997814
aF0.60999428133041866
aF0.42426406871192851
aF0.56568542494923801
aF0.56568542494923801
aF0.42426406871192851
aF0.457495710997814
aF0.60999428133041866
aF0.457495710997814
aF0.457495710997814
aF0.46816458878452227
aF0.58520573598065284
aF0.46816458878452227
aF0.46816458878452227
aF0.56568542494923801
aF0.42426406871192851
aF0.56568542494923801
aF0.42426406871192851
aF0.55215763037423271
aF0.44172610429938614
aF0.55215763037423271
aF0.44172610429938614
aF0.5
aF0.5
aF0.5
aF0.5
aF0.6546536707079772
aF0.43643578047198478
aF0.43643578047198478
aF0.43643578047198478
aF0.54554472558998102
aF0.54554472558998102
aF0.3273268353539886
aF0.54554472558998102
aF0.43643578047198478
aF0.43643578047198478
aF0.6546536707079772
aF0.43643578047198478
aF0.457495710997814
aF0.457495710997814
aF0.60999428133041866
aF0.457495710997814
aF0.46816458878452227
aF0.58520573598065284
aF0.46816458878452227
aF0.46816458878452227
aF0.46816458878452227
aF0.46816458878452227
aF0.58520573598065284
aF0.46816458878452227
aF0.55215763037423271
aF0.44172610429938614
aF0.44172610429938614
aF0.55215763037423271
aF0.52981294282601754
aF0.52981294282601754
aF0.52981294282601754
aF0.39735970711951313
aF0.43643578047198478
aF0.43643578047198478
aF0.6546536707079772
aF0.43643578047198478
aF0.60999428133041866
aF0.457495710997814
aF0.457495710997814
aF0.457495710997814
aF0.52981294282601754
aF0.52981294282601754
aF0.52981294282601754
aF0.39735970711951313
aF0.41602514716892186
aF0.41602514716892186
aF0.41602514716892186
aF0.69337524528153649
aF0.43643578047198478
aF0.6546536707079772
aF0.43643578047198478
aF0.43643578047198478
aF0.5
aF0.5
aF0.5
aF0.5
aF0.5
aF0.5
aF0.5
aF0.5
aF0.47457899787624952
aF0.47457899787624952
aF0.47457899787624952
aF0.56949479745149945
aF0.6546536707079772
aF0.43643578047198478
aF0.43643578047198478
aF0.43643578047198478
aF0.41931393468876732
aF0.52414241836095921
aF0.52414241836095921
aF0.52414241836095921
aF0.5
aF0.5
aF0.5
aF0.5
aF0.44353276257274371
aF0.51745488966820097
aF0.51745488966820097
aF0.51745488966820097
aF0.41931393468876732
aF0.52414241836095921
aF0.52414241836095921
aF0.52414241836095921
aF0.47885213068057331
aF0.47885213068057331
aF0.47885213068057331
aF0.55866081912733556
aF0.59408852578600457
aF0.39605901719066977
aF0.4950737714883372
aF0.4950737714883372
aF0.457495710997814
aF0.457495710997814
aF0.60999428133041866
aF0.457495710997814
aF0.5
aF0.5
aF0.5
aF0.5
aF0.3692744729379982
aF0.4923659639173309
aF0.61545745489666359
aF0.4923659639173309
aF0
aF0
aF1
aF0
aF0.5
aF0.5
aF0.5
aF0.5
aF0.56568542494923801
aF0.42426406871192851
aF0.42426406871192851
aF0.56568542494923801
aF0.5
aF0.5
aF0.5
aF0.5
aF0.43643578047198478
aF0.43643578047198478
aF0.6546536707079772
aF0.43643578047198478
aF0.46563307366641754
aF0.46563307366641754
aF0.53215208419019144
aF0.53215208419019144
aF0.46816458878452227
aF0.58520573598065284
aF0.46816458878452227
aF0.46816458878452227
aF0.48564293117863205
aF0.38851434494290565
aF0.67990010365008491
aF0.38851434494290565
aF0.4950737714883372
aF0.4950737714883372
aF0.39605901719066977
aF0.59408852578600457
aF0.58834840541455213
aF0.39223227027636809
aF0.58834840541455213
aF0.39223227027636809
aF0.43643578047198478
aF0.6546536707079772
aF0.43643578047198478
aF0.43643578047198478
aF0.5
aF0.5
aF0.5
aF0.5
aF0.51261459463005654
aF0.51261459463005654
aF0.59805036040173265
aF0.34174306308670438
aF0.31622776601683794
aF0.31622776601683794
aF0.63245553203367588
aF0.63245553203367588
aF0.6546536707079772
aF0.43643578047198478
aF0.43643578047198478
aF0.43643578047198478
aF0.39056673294247163
aF0.6509445549041194
aF0.52075564392329554
aF0.39056673294247163
aF0.457495710997814
aF0.60999428133041866
aF0.457495710997814
aF0.457495710997814
aF0.32444284226152509
aF0.48666426339228763
aF0.64888568452305018
aF0.48666426339228763
aF0.52075564392329554
aF0.39056673294247163
aF0.6509445549041194
aF0.39056673294247163
aF0.43643578047198478
aF0.43643578047198478
aF0.6546536707079772
aF0.43643578047198478
aF0.43643578047198478
aF0.43643578047198478
aF0.43643578047198478
aF0.6546536707079772
aF0.457495710997814
aF0.60999428133041866
aF0.457495710997814
aF0.457495710997814
aF0.3779644730092272
aF0.3779644730092272
aF0.7559289460184544
aF0.3779644730092272
aF0.55215763037423271
aF0.44172610429938614
aF0.55215763037423271
aF0.44172610429938614
aF0.58834840541455213
aF0.58834840541455213
aF0.39223227027636809
aF0.39223227027636809
aF0.5
aF0.5
aF0.5
aF0.5
aF0.36380343755449945
aF0.60633906259083248
aF0.36380343755449945
aF0.60633906259083248
aF0.5
aF0.5
aF0.5
aF0.5
aF0.5
aF0.5
aF0.5
aF0.5
aF0.5
aF0.5
aF0.5
aF0.5
aF0.5
aF0.5
aF0.5
aF0.5
aF0.52981294282601754
aF0.52981294282601754
aF0.52981294282601754
aF0.39735970711951313
aF0.5
aF0.5
aF0.5
aF0.5
aF0.6546536707079772
aF0.43643578047198478
aF0.43643578047198478
aF0.43643578047198478
aF0.43643578047198478
aF0.43643578047198478
aF0.6546536707079772
aF0.43643578047198478
aF0.56949479745149945
aF0.47457899787624952
aF0.47457899787624952
aF0.47457899787624952
aF0.3481553119113957
aF0.69631062382279141
aF0.5222329678670935
aF0.3481553119113957
aF0.3779644730092272
aF0.3779644730092272
aF0.7559289460184544
aF0.3779644730092272
aF0.457495710997814
aF0.60999428133041866
aF0.457495710997814
aF0.457495710997814
aF0.5121475197315839
aF0.25607375986579195
aF0.5121475197315839
aF0.64018439966447993
aF0.3779644730092272
aF0.3779644730092272
aF0.7559289460184544
aF0.3779644730092272
aF0.41380294430118397
aF0.57932412202165751
aF0.49656353316142077
aF0.49656353316142077
aF0.60999428133041866
aF0.457495710997814
aF0.457495710997814
aF0.457495710997814
aF0.45267873021259264
aF0.54321447625511121
aF0.45267873021259264
aF0.54321447625511121
aF0.5
aF0.5
aF0.5
aF0.5
aF0.5
aF0.5
aF0.5
aF0.5
aF0.57735026918962573
aF0.34641016151377541
aF0.57735026918962573
aF0.46188021535170054
aF0.5
aF0.5
aF0.5
aF0.5
aF0.5
aF0.5
aF0.5
aF0.5
aF0.48189987357505998
aF0.48189987357505998
aF0.48189987357505998
aF0.55074271265721142
aF0.5
aF0.5
aF0.5
aF0.5
aF0.6546536707079772
aF0.43643578047198478
aF0.43643578047198478
aF0.43643578047198478
aF0.6546536707079772
aF0.43643578047198478
aF0.43643578047198478
aF0.43643578047198478
aF0.55215763037423271
aF0.44172610429938614
aF0.55215763037423271
aF0.44172610429938614
aF0.94868329805051377
aF0
aF0.31622776601683794
aF0
aF0.5
aF0.5
aF0.5
aF0.5
aF0.42426406871192851
aF0.56568542494923801
aF0.56568542494923801
aF0.42426406871192851
aF0.6546536707079772
aF0.43643578047198478
aF0.43643578047198478
aF0.43643578047198478
aF0.5119921115897168
aF0.45510409919085942
aF0.56888012398857424
aF0.45510409919085942
aF0.41602514716892186
aF0.69337524528153649
aF0.41602514716892186
aF0.41602514716892186
aF0.5
aF0.5
aF0.5
aF0.5
aF0.5
aF0.5
aF0.5
aF0.5
aF0.5
aF0.5
aF0.5
aF0.5
aF0.5
aF0.5
aF0.5
aF0.5
aF0.5
aF0.5
aF0.5
aF0.5
aF0.3779644730092272
aF0.3779644730092272
aF0.3779644730092272
aF0.7559289460184544
aF0.58834840541455213
aF0.39223227027636809
aF0.58834840541455213
aF0.39223227027636809
aF0.5
aF0.5
aF0.5
aF0.5
aF0.7559289460184544
aF0.3779644730092272
aF0.3779644730092272
aF0.3779644730092272
aF0.47457899787624952
aF0.47457899787624952
aF0.47457899787624952
aF0.56949479745149945
aF0.20203050891044214
aF0.90913729009698963
aF0.30304576336566325
aF0.20203050891044214
aF0.46816458878452227
aF0.58520573598065284
aF0.46816458878452227
aF0.46816458878452227
aF0.34412360080584259
aF0.34412360080584259
aF0.34412360080584259
aF0.80295506854696608
aF0.5
aF0.5
aF0.5
aF0.5
aF0.5
aF0.5
aF0.5
aF0.5
aF0.5
aF0.5
aF0.5
aF0.5
aF0.56949479745149945
aF0.47457899787624952
aF0.47457899787624952
aF0.47457899787624952
aF0.70710678118654746
aF0.70710678118654746
aF0
aF0
aF0.5
aF0.5
aF0.5
aF0.5
aF0.2581988897471611
aF0.2581988897471611
aF0.5163977794943222
aF0.7745966692414834
aF0.46816458878452227
aF0.58520573598065284
aF0.46816458878452227
aF0.46816458878452227
aF0.47457899787624952
aF0.47457899787624952
aF0.47457899787624952
aF0.56949479745149945
aF0.3779644730092272
aF0.7559289460184544
aF0.3779644730092272
aF0.3779644730092272
aF0.51854497287013479
aF0.37712361663282534
aF0.51854497287013479
aF0.56568542494923801
aF0.51189069688899147
aF0.51189069688899147
aF0.58501793930170454
aF0.36563621206356534
aF0.5
aF0.5
aF0.5
aF0.5
aF0.60999428133041866
aF0.457495710997814
aF0.457495710997814
aF0.457495710997814
aF0.39223227027636809
aF0.39223227027636809
aF0.58834840541455213
aF0.58834840541455213
aF0.39605901719066977
aF0.59408852578600457
aF0.4950737714883372
aF0.4950737714883372
aF0.5
aF0.5
aF0.5
aF0.5
aF0.3779644730092272
aF0.3779644730092272
aF0.7559289460184544
aF0.3779644730092272
aF0.32349831961031522
aF0.21566554640687682
aF0.32349831961031522
aF0.86266218562750729
aF0.5
aF0.5
aF0.5
aF0.5
aF0.39056673294247163
aF0.52075564392329554
aF0.39056673294247163
aF0.6509445549041194
aF0.3779644730092272
aF0.3779644730092272
aF0.7559289460184544
aF0.3779644730092272
aF0.5
aF0.5
aF0.5
aF0.5
aF0.3481553119113957
aF0.3481553119113957
aF0.5222329678670935
aF0.69631062382279141
aF0.50128041182760308
aF0.50128041182760308
aF0.28644594961577319
aF0.64450338663548956
aF0.38461538461538464
aF0.61538461538461542
aF0.30769230769230771
aF0.61538461538461542
aF0.5
aF0.5
aF0.5
aF0.5
aF0.85280286542244166
aF0.42640143271122083
aF0.21320071635561041
aF0.21320071635561041
aF0.5
aF0.5
aF0.5
aF0.5
aF0.6546536707079772
aF0.43643578047198478
aF0.43643578047198478
aF0.43643578047198478
aF0.5
aF0.5
aF0.5
aF0.5
aF0.5
aF0.5
aF0.5
aF0.5
aF0.3779644730092272
aF0.7559289460184544
aF0.3779644730092272
aF0.3779644730092272
aF0.62217101683825515
aF0.4147806778921701
aF0.51847584736521268
aF0.4147806778921701
aF0.5
aF0.5
aF0.5
aF0.5
aF0.5
aF0.5
aF0.5
aF0.5
aF0.42426406871192851
aF0.56568542494923801
aF0.42426406871192851
aF0.56568542494923801
aF0.39223227027636809
aF0.58834840541455213
aF0.58834840541455213
aF0.39223227027636809
aF0.46816458878452227
aF0.58520573598065284
aF0.46816458878452227
aF0.46816458878452227
aF0.5
aF0.5
aF0.5
aF0.5
aF0.54321447625511121
aF0.45267873021259264
aF0.54321447625511121
aF0.45267873021259264
aF0.5
aF0.5
aF0.5
aF0.5
aF0.5
aF0.5
aF0.5
aF0.5
aF0.43643578047198478
aF0.6546536707079772
aF0.43643578047198478
aF0.43643578047198478
aF0.43643578047198478
aF0.6546536707079772
aF0.43643578047198478
aF0.43643578047198478
aF0.5
aF0.5
aF0.5
aF0.5
aF0.52981294282601754
aF0.39735970711951313
aF0.52981294282601754
aF0.52981294282601754
aF0.46625240412015689
aF0.37300192329612553
aF0.65275336576821963
aF0.46625240412015689
aF0.5
aF0.5
aF0.5
aF0.5
aF0.40824829046386302
aF0.48989794855663565
aF0.40824829046386302
aF0.65319726474218087
aF0.5
aF0.5
aF0.5
aF0.5
aF0.51847584736521268
aF0.62217101683825515
aF0.4147806778921701
aF0.4147806778921701
aF0.21320071635561041
aF0.21320071635561041
aF0.42640143271122083
aF0.85280286542244166
aF0.7745966692414834
aF0.2581988897471611
aF0.2581988897471611
aF0.5163977794943222
aF0.4950737714883372
aF0.39605901719066977
aF0.4950737714883372
aF0.59408852578600457
aF0.63245553203367588
aF0.63245553203367588
aF0.31622776601683794
aF0.31622776601683794
aF0.60999428133041866
aF0.457495710997814
aF0.457495710997814
aF0.457495710997814
aF0.5
aF0.5
aF0.5
aF0.5
aF0.5
aF0.5
aF0.5
aF0.5
aF0.5222329678670935
aF0.3481553119113957
aF0.69631062382279141
aF0.3481553119113957
aF0.47457899787624952
aF0.47457899787624952
aF0.56949479745149945
aF0.47457899787624952
aF0.5
aF0.5
aF0.5
aF0.5
aF0.44172610429938614
aF0.44172610429938614
aF0.55215763037423271
aF0.55215763037423271
aF0.46816458878452227
aF0.46816458878452227
aF0.46816458878452227
aF0.58520573598065284
aF0.60999428133041866
aF0.457495710997814
aF0.457495710997814
aF0.457495710997814
aF0.41602514716892186
aF0.69337524528153649
aF0.41602514716892186
aF0.41602514716892186
aF0.42640143271122083
aF0.21320071635561041
aF0.85280286542244166
aF0.21320071635561041
aF0.457495710997814
aF0.457495710997814
aF0.60999428133041866
aF0.457495710997814
aF0.43643578047198478
aF0.43643578047198478
aF0.43643578047198478
aF0.6546536707079772
aF0.5
aF0.5
aF0.5
aF0.5
aF0.5
aF0.5
aF0.5
aF0.5
aF0.5
aF0.5
aF0.5
aF0.5
aF0.5
aF0.5
aF0.5
aF0.5
aF0.43643578047198478
aF0.43643578047198478
aF0.43643578047198478
aF0.6546536707079772
aF0.5
aF0.5
aF0.5
aF0.5
aF0.5
aF0.5
aF0.5
aF0.5
a.