(lp1
F0.44435017465316862
aF0.61259851955740363
aF0.50945530978440579
aF0.40955007441612207
aF0.31402631744484516
aF0.53887211458481299
aF0.66780037083137145
aF0.40625974547376004
aF0.5
aF0.5
aF0.5
aF0.5
aF0.40297679206043513
aF0.40459189576710641
aF0.43470605649766919
aF0.69638046166194589
aF0.59916868174566895
aF0.61164318085958524
aF0.32945474624146975
aF0.397930999423386
aF0.52437770864212041
aF0.29015910505662218
aF0.58343050037873001
aF0.54812823651022069
aF0.52928984678987612
aF0.34323069209105989
aF0.43084706005033313
aF0.64530284435900798
aF0.4783398467197707
aF0.46667315171148188
aF0.42414636513879922
aF0.61115220808839676
aF0.25577636264678155
aF0.52372730591050187
aF0.43076231687627625
aF0.68900797362170796
aF0.47611475632585237
aF0.35208743163074935
aF0.45826813053813098
aF0.66282690035145908
aF0.46704433754131086
aF0.46790303441880404
aF0.46739917096176259
aF0.58691937447704901
aF0.33622761653446775
aF0.53028802888914328
aF0.57383424933798333
aF0.52579449462991856
aF0.59929522986507677
aF0.46206184725012495
aF0.46960467364844083
aF0.45476975192322128
aF0.39065628428822607
aF0.55592389725198654
aF0.36188032090172262
aF0.6382624235801021
aF0.42191970579401072
aF0.4192208923964188
aF0.68314249302553176
aF0.42373805524628899
aF0.47489811643742758
aF0.44797684461596426
aF0.59366991036019512
aF0.47047270189143364
aF0.2810808370665866
aF0.57934904865297387
aF0.36132652083035516
aF0.67438222708155071
aF0.49736294489563643
aF0.31210617997429241
aF0.67163223758687352
aF0.45180744892115737
aF0.33114215432280669
aF0.61223444032952978
aF0.37507713044016106
aF0.61223444032952978
aF0.75218055884589619
aF0.31574457843612991
aF0.34330653978520831
aF0.46547866527175341
aF0.35355415109313681
aF0.53282466462621836
aF0.61402217309450946
aF0.46268143463841904
aF0.3699821264494535
aF0.43033786439775495
aF0.70112032224523524
aF0.43168604599669158
aF0.5509208672474063
aF0.51705012447817822
aF0.5009890137399976
aF0.4220845589692786
aF0.33510513842367096
aF0.60643773987114047
aF0.56997359558373006
aF0.44166493431037718
aF0.64786150683971921
aF0.40309525866599338
aF0.49777218193124917
aF0.41232576355567163
aF0.40850517828661337
aF0.68460057437012911
aF0.41922197524553717
aF0.43439441565971088
aF0.48550883919855425
aF0.48564573853171172
aF0.56717433862351718
aF0.45468962305405269
aF0.26427433543956219
aF0.29049276000726182
aF0.88309828002186508
aF0.25673032511521626
aF0.36999943307456634
aF0.50219869207122658
aF0.50219869207122658
aF0.59891014926147157
aF0.31418355930432701
aF0.53336790409668311
aF0.5764772751998879
aF0.53336790409668311
aF0.34164378545763119
aF0.19349993691222839
aF0.90911093297362922
aF0.13912084610496359
aF0.56245915074630592
aF0.47736289760071243
aF0.47737724257681968
aF0.47736289760071243
aF0.42693101532838434
aF0.50290593345224388
aF0.60169933047518198
aF0.45030372633914528
aF0.44825463535847254
aF0.55116824520422547
aF0.55138659803675161
aF0.43732615616218917
aF0.59362246436172961
aF0.4549317277617102
aF0.36161215553550141
aF0.55667417925553242
aF0.411264458012088
aF0.61507159684559232
aF0.41093437090881518
aF0.53261751673749225
aF0.6847389872372307
aF0.31707413838503568
aF0.57581338628041911
aF0.31469898999678353
aF0.79881512618742934
aF0.40549157048454171
aF0.31422203967906309
aF0.31422203967906309
aF0.53059125291352183
aF0.46630978765922099
aF0.5325253854963945
aF0.46630978765922099
aF0.53083293203194504
aF0.49951222015091479
aF0.46852134455842215
aF0.49919103545981353
aF0.38393951418316169
aF0.63306682452078911
aF0.38458985893502046
aF0.55127804739922592
aF0.44429987517069536
aF0.60954133293159019
aF0.48320137567567173
aF0.44449231142554435
aF0.68525647119940147
aF0.37928838958992195
aF0.36525316361275517
aF0.50314412713704726
aF0.51727245742793504
aF0.49529361310827669
aF0.51750688180364512
aF0.46829485250905956
aF0.26393015572403256
aF0.36141617334069687
aF0.58455680839781832
aF0.67676625233754939
aF0.257880313299721
aF0.10851820503975301
aF0.26287939055793913
aF0.92337206434203656
aF0.47465302255936409
aF0.68158197754490346
aF0.29927812534168674
aF0.46966277237311915
aF0.49949316949743028
aF0.50149338329551141
aF0.49949316949743028
aF0.49951730076309075
aF0.52149702058650882
aF0.58470630631753107
aF0.52358327890678225
aF0.33469380472474658
aF0.33030011434335066
aF0.56748738150693645
aF0.54693219984127517
aF0.51935062825797551
aF0.52164680253102247
aF0.49244533175881933
aF0.49396346158861326
aF0.49130673438647393
aF0.49169595056432269
aF0.50722938843498422
aF0.44807677148000319
aF0.54788743968681752
aF0.42869901835683649
aF0.643402831674588
aF0.4624188883088074
aF0.43407225157599416
aF0.32159624609808912
aF0.63601370076435981
aF0.56381026549679036
aF0.41734926794721866
aF0.48356329709818746
aF0.42763019582719586
aF0.58502012388186142
aF0.4909688462311797
aF0.6460749095483943
aF0.45680955708687054
aF0.46359951733368521
aF0.39873265145220477
aF0.47162133302800874
aF0.50853388585935999
aF0.51286209371733971
aF0.50590421820096565
aF0.57820054087377903
aF0.5228131416908649
aF0.53716243879284686
aF0.32219104233159251
aF0.24210835533418529
aF0.49968859439367763
aF0.47635508584829928
aF0.68174825639432768
aF0.46240034938305979
aF0.39550789394068697
aF0.59966090169977637
aF0.51977516840807036
aF0.47727881328073746
aF0.49891794697934966
aF0.47727881328073746
aF0.54359060971338791
aF0.3821308991163348
aF0.38232007951632335
aF0.3819417187163463
aF0.74961847378728419
aF0.27425574919631029
aF0.48217885737499583
aF0.51827317634306858
aF0.65090725008758388
aF0.63091425023349101
aF0.44752934784769988
aF0.44834778207211373
aF0.4479385649599068
aF0.50478875626430408
aF0.511648109590226
aF0.49164383603859019
aF0.49162064845482728
aF0.41042117983589704
aF0.72100467443126437
aF0.43397913827627299
aF0.35123898150882982
aF0.46976625789804571
aF0.53640796060198659
aF0.4849251280339868
aF0.506392913600206
aF0.64124123980695202
aF0.4164912237695238
aF0.41063239583302269
aF0.49671497701019585
aF0.39673036019171354
aF0.72227667292171149
aF0.47927490110093696
aF0.30202151948161432
aF0.37809746555147361
aF0.58111046819748158
aF0.58081669104356992
aF0.42662032499642361
aF0.7096694786028469
aF0.37363295141570696
aF0.46601080070352363
aF0.37363295141570696
aF0.3329824819294277
aF0.60057438756583892
aF0.29199039883825895
aF0.66571366120450792
aF0.24567351949294494
aF0.61281267144302631
aF0.33970301908494688
aF0.6698559624004129
aF0.32499726524299155
aF0.12581818014503304
aF0.85032384991309895
aF0.3943297013902633
aF0.43958657775116039
aF0.5185761405557282
aF0.5185761405557282
aF0.5185761405557282
aF0.48399655953160631
aF0.56104686881992483
aF0.56095878132160226
aF0.36918692691793548
aF0.60520877244698335
aF0.28807148827945916
aF0.60498292003278975
aF0.42980556750962673
aF0.5798372652085837
aF0.40584882313870296
aF0.54060380534854768
aF0.45477797250419905
aF0.52256265200458163
aF0.38811013200235817
aF0.36820834644433365
aF0.66386852145268971
aF0.50667808540399073
aF0.48774167309340488
aF0.50268547726157375
aF0.50268547726157375
aF0.35248153344180971
aF0.21202158481224051
aF0.66957697579409059
aF0.61844182397591463
aF0.38375849357996633
aF0.60384841033391601
aF0.4841473855232013
aF0.50368425132565564
aF0.4920137870125903
aF0.69760158918299831
aF0.3674217290536238
aF0.36915542685721148
aF0.39902356270298572
aF0.6686920480106725
aF0.36293066447041039
aF0.51177385056504721
aF0.44319517700307809
aF0.58094436946733352
aF0.44323586043563595
aF0.51925296984157343
aF0.60582324237967966
aF0.48702296473279788
aF0.54354502046327224
aF0.31677380186030035
aF0.48528455487108074
aF0.48512355440623089
aF0.54160434511118838
aF0.48561174936416274
aF0.5
aF0.5
aF0.5
aF0.5
aF0.49439429064454227
aF0.51905893525008107
aF0.49439429064454227
aF0.49165678322709233
aF0.37305560955045874
aF0.41203466421903617
aF0.41203466421903617
aF0.72200026533703432
aF0.40867579114747815
aF0.38568522011582901
aF0.58750612727952278
aF0.58229507908207889
aF0.50528011582466437
aF0.47665616995124666
aF0.5055199359362198
aF0.51180122564396269
aF0.41972035336241431
aF0.41897520430909441
aF0.40002812635709045
aF0.698764696640234
aF0.64171333130484853
aF0.39494328308568538
aF0.36056827039983869
aF0.54974023497648672
aF0.41573786105390143
aF0.45392500101482564
aF0.59911293421345746
aF0.51203302276138307
aF0.60188365396940136
aF0.32041473523856578
aF0.6575749858141211
aF0.32041473523856578
aF0.61213801340945284
aF0.48499048458602734
aF0.44350806534240772
aF0.43974069447388375
aF0.44502084905834777
aF0.44509282546658241
aF0.63665100964456189
aF0.44556067212010714
aF0.3076347026942885
aF0.29500382454708651
aF0.46010700186850689
aF0.77886788355430481
aF0.45237176118793115
aF0.6120800419768383
aF0.31353483205851373
aF0.56781486505673717
aF0.46968333114563104
aF0.59108899939646298
aF0.46366206620585937
aF0.46371203520950893
aF0.41424895790575927
aF0.41455108618318603
aF0.53400115818296889
aF0.60941608189937124
aF0.50371878477166943
aF0.50267665876491152
aF0.44597268631409298
aF0.54285534506246613
aF0.44044767205894542
aF0.55422734236572879
aF0.43766007914383026
aF0.55433884608233341
aF0.376101114165591
aF0.2583162845560158
aF0.56125051098195022
aF0.69052046528620459
aF0.51230401958918914
aF0.4930439036687711
aF0.4929130657184625
aF0.50148679963868059
aF0.49070626250101301
aF0.35903022446746929
aF0.73875712877883049
aF0.29076204453054727
aF0.56737966856970823
aF0.30249927885696981
aF0.5144411705381372
aF0.5673841556124849
aF0.73642597875961902
aF0.30737723600666716
aF0.55107566883078096
aF0.24395003548994623
aF0.25138236661612129
aF0.46980292754417535
aF0.73527173803782397
aF0.41888851293421492
aF0.30435277258753796
aF0.50008158027809502
aF0.62888509502677259
aF0.51165548969791086
aF0.18704501052507905
aF0.56860222199563792
aF0.25355707877724065
aF0.75987794084395455
aF0.57917143207617006
aF0.47098352505726881
aF0.46512300585918809
aF0.47581042528719492
aF0.47148278492662515
aF0.47723108319967095
aF0.46916189804427494
aF0.57431837004347663
aF0.59699096908754745
aF0.60350382326194274
aF0.42741723827644768
aF0.31096530764743358
aF0.31306629465572139
aF0.23042911261445262
aF0.89008129304207106
aF0.23800674567500793
aF0.15814598548768533
aF0.4480792020016453
aF0.59359788502198862
aF0.64950475510585703
aF-0.00088342474805126238
aF-0.0014108425080818668
aF0.99998407301802594
aF-0.0053928465963129302
aF0.44230547071995518
aF0.53994479801930551
aF0.44199599121232175
aF0.56344035124876135
aF0.42582548515934077
aF0.5956175367767147
aF0.38929184280347562
aF0.55889557808192125
aF0.17017689975161146
aF0.3595632558934026
aF0.65884263716432911
aF0.63849860395823721
aF0.46329883078314082
aF0.45063720465121154
aF0.56468748020863557
aF0.513233234382516
aF0.37182145139887141
aF0.75184791240834292
aF0.34831002035095349
aF0.41851362535761238
aF0.42783497782172458
aF0.42848968307612412
aF0.66766797864479177
aF0.43309732571557746
aF0.38419348894750344
aF0.37240922793545878
aF0.61373798295150261
aF0.58054493218137826
aF0.56568377115939961
aF0.54511297678570492
aF0.4671641819580078
aF0.40572323162743962
aF0.49611233408869648
aF0.43036087301670639
aF0.56350991601018485
aF0.5011173969236733
aF0.46472022031570448
aF0.59356105784828006
aF0.46466389324431961
aF0.46455123910154983
aF0.5487717354443582
aF0.54889108244151952
aF0.37007042715304422
aF0.51050567180035089
aF0.48941482056325575
aF0.48934528646698683
aF0.51198552459263635
aF0.50880757328599358
aF0.51735052431847184
aF0.4134666328942086
aF0.6386056429282102
aF0.39188851895759247
aF0.3665993503897238
aF0.49025083219747739
aF0.40226735953702319
aF0.68076428319545701
aF0.7308584219761991
aF0.42086089752296912
aF0.26892735138912593
aF0.46518829696957198
aF0.31766268545621429
aF0.13379784778675627
aF0.87714833919321988
aF0.33436409084552471
aF0.78288421343712689
aF0.29719675883955182
aF0.45562483950478228
aF0.30194767843525161
aF0.4553244764128625
aF0.56589312592371255
aF0.51486278041146794
aF0.45536898067239312
aF0.45220830482040492
aF0.69811574654239827
aF0.49211571108327135
aF0.25683492828276322
aF0.45177458883949584
aF0.41924108684401079
aF0.71556097859408396
aF0.32879951017943126
aF0.51269823329077102
aF0.25781040316443166
aF0.46588502054848707
aF0.67351723454507917
aF0.56041884437351874
aF0.46596026301260596
aF0.50208308540719293
aF0.4655366016891328
aF0.4732700346851943
aF0.47333687043772782
aF0.57238863049224498
aF0.47364431489938208
aF0.49653374298203007
aF0.50850923012299354
aF0.50849784971899992
aF0.48610959853836383
aF0.47431951837208752
aF0.46848747932145923
aF0.4114301738789185
aF0.62150276606967658
aF0.56073447823361233
aF0.56049423817493016
aF0.41395007190967736
aF0.44729005338678857
aF0.42916102862815375
aF0.414739694298559
aF0.32387520317293084
aF0.73410942661816803
aF0.62110655938651793
aF0.42755137627358664
aF0.46397923174362971
aF0.46491906289610763
aF0.56555078881610832
aF0.48265523367574586
aF0.48775485187404999
aF0.45748380861863575
aF0.44715203496565464
aF0.67783058025735499
aF0.38676223740649235
aF0.43705346790796162
aF0.50482662455589233
aF0.53682345518267816
aF0.44792097626447991
aF0.506297793919261
aF0.66390061079777829
aF0.25557148828969378
aF0.49578745001229163
aF0.49811042728097682
aF0.52973880108812399
aF0.60963985354627337
aF0.027325823424584398
aF0.58904104353089315
aF0.4735251504325228
aF0.54499365525467014
aF0.47590817590969803
aF0.50226213847184842
aF0.38618376301047802
aF0.38615429262533102
aF0.60797948089390197
aF0.57628804801598876
aF0.48027435173236216
aF0.46423431552189381
aF0.6056987651843625
aF0.43237952450840755
aF0.771107471646168
aF0.46829659147139907
aF0.40367106637536604
aF0.15212244988527712
aF0.52438817364473456
aF0.47004945329470643
aF0.57332517868844912
aF0.41877057475513413
aF0.54250282099182312
aF0.57977463141305829
aF0.47953127242506594
aF0.37363327575600602
aF0.42148302341073957
aF0.67821512557595676
aF0.42719054954770203
aF0.42412797454738066
aF0.54896731229652507
aF0.59026068238422191
aF0.51347788912950443
aF0.29422385055659678
aF0.5643203450285369
aF0.52325671231742121
aF0.45050564984296587
aF0.45253687215651667
aF0.56002600894452292
aF0.4463582965996955
aF0.44700500064693016
aF0.53602394513577978
aF0.51320686210152755
aF0.45762644346049897
aF0.51352404161469523
aF0.51331258860591678
aF0.64516836475483907
aF0.36902116071978097
aF0.40655127428661614
aF0.53131650213081205
aF0.2724328835252241
aF0.65996694413297774
aF0.5371275009673574
aF0.44913027545520923
aF0.23531178504235284
aF0.79640287718627367
aF0.43577070260432876
aF0.34709467841114516
aF0.43654425602451968
aF0.55933734996597784
aF0.43656634038674341
aF0.55315519694418702
aF0.44862441598347258
aF0.44798589968617719
aF0.43415137991144503
aF0.63996667599715107
aF0.58244081526413394
aF0.4693125102084435
aF0.4693125102084435
aF0.4693125102084435
aF0.40852680410714631
aF0.4631659749146258
aF0.40852680410714631
aF0.67207810582802552
aF0.57104487572126383
aF0.31342543231703451
aF0.58437118123778742
aF0.48392413747210355
aF0.50037166519938603
aF0.49987605019164294
aF0.49987605019164294
aF0.49987605019164294
aF0.56315702404418233
aF0.57492883490944036
aF0.54463496859696403
aF0.23597404950705425
aF0.54368520521035546
aF0.4534232994800429
aF0.52168130667115276
aF0.47609066719888948
aF0.68558339821386316
aF0.43353417205217232
aF0.43255494836733732
aF0.39359845324835729
aF0.41827838151582891
aF0.52441815235442879
aF0.52441815235442879
aF0.52441815235442879
aF0.42605607485098279
aF0.38134731870162186
aF0.68635872981072998
aF0.44940197775962071
aF0.41982544141589395
aF0.45667320047673027
aF0.71739709772761451
aF0.31707663250117507
aF0.46580597798076667
aF0.48584229704419923
aF0.57984147779464368
aF0.45909248949326242
aF0.45242744961519887
aF0.45030593465282692
aF0.4545158159062837
aF0.62124821218428949
aF0.42516982143425353
aF0.63086200386294322
aF0.43611688937110848
aF0.48067225198555502
aF0.17975590330747376
aF0.45508396154711894
aF0.10762796375195346
aF0.86544937725282511
aF0.33766074904593713
aF0.47588070481231359
aF0.33769221758695728
aF0.73857074104128673
aF0.30843963778224787
aF0.44991196910254061
aF0.65448255799602029
aF0.52354253999270806
aF0.34676433563264686
aF0.25616311007390896
aF0.48871080488596458
aF0.75848316115667591
aF0.43450543090170113
aF0.50793459865270996
aF0.54324004173268448
aF0.50803319878400532
aF0.51892946484421643
aF0.538570579277865
aF0.49926076762425703
aF0.43748443122474401
aF0.60355187271002575
aF0.40759773282759665
aF0.22662375710207314
aF0.64670773759014555
aF0.40697772791356224
aF0.57781714281267871
aF0.40697772791356224
aF0.57867573600110578
aF0.58897637130248415
aF0.40946732961070381
aF0.53605863120429031
aF0.44506683086950033
aF0.45334446607793949
aF0.45268574833189135
aF0.45267795285560675
aF0.62019116353924364
aF0.51950949609076613
aF0.51947703906269405
aF0.39593806647087093
aF0.55089612167584079
aF0.4728774878065744
aF0.5976626299195591
aF0.4577417983804537
aF0.45788503834347688
aF0.64532019465012003
aF0.43002387903484335
aF0.49027306945512333
aF0.39783618136565885
aF0.62433620391292
aF0.45023964080476797
aF0.45051372726346589
aF0.45224545534342031
aF0.54246390037308556
aF0.52499943504409874
aF0.47838797596440957
aF0.44861281128393055
aF0.30332485403997161
aF0.53251489300938248
aF0.6222483634442979
aF0.48706149081581968
aF0.29932121459357408
aF0.447940266866585
aF0.44847032883526278
aF0.71318349109335921
aF0.67142789630834709
aF0.36957952529767085
aF0.52601748962183115
aF0.36864773856846417
aF0.51812834747526659
aF0.51886915292486002
aF0.31802133004525773
aF0.60098273795661805
aF0.43543518539330234
aF0.35896153429875571
aF0.55234871155689869
aF0.61355824259545055
aF0.50558418495641688
aF0.67002083410719204
aF0.34263074621427042
aF0.42197261230192462
aF0.53596313977303212
aF0.42795594932744946
aF0.43119046253080756
aF0.5862354503630286
aF0.33539649394391713
aF0.73635558284550306
aF0.48018234920231018
aF0.33869537784997611
aF0.54321833720275459
aF0.59471993911611354
aF0.41874629245116213
aF0.4193728349604996
aF-0.5
aF-0.5
aF-0.5
aF-0.5
aF0.5
aF0.5
aF0.5
aF0.5
aF0.55738729220760341
aF0.56690677743264462
aF0.30675902556766926
aF0.52329247311535432
aF0.43197040858022118
aF0.42526155647834901
aF0.43189748627476604
aF0.6678463416401913
aF-0.0048112732113173868
aF-0.0049448151964634124
aF0.99996614651950289
aF-0.0044840013040581116
aF0.5748012163461641
aF0.46919808054102585
aF0.5548412238069188
aF0.37630830348004268
aF0.4666140770606752
aF0.47029428365276882
aF0.46992027891779992
aF0.5833262563215893
aF0.45655975852450609
aF0.53540000181309755
aF0.53547228851450723
aF0.46708613037384877
aF0.47118845288871714
aF0.47159399576172739
aF0.47064772905803681
aF0.57798897927065851
aF0.32289082760932497
aF0.64976531635500068
aF0.36840717507367216
aF0.5812251719102397
aF0.51286013016304222
aF0.46199318878475659
aF0.51934265917733557
aF0.50380550092694865
aF0.44632243447421727
aF0.63866186491948529
aF0.45272636836851826
aF0.43352755640953877
aF0.48068421460892702
aF0.51852404922912809
aF0.51866962704849684
aF0.48068421460892702
aF0.47969843063065487
aF0.58985337299464213
aF0.42148634969970167
aF0.49427894051249166
aF0.34928926967003837
aF0.7146925059041308
aF0.49693042141106647
aF0.34680222659905896
aF0.47282061860199676
aF0.55411255693426242
aF0.4033255562774235
aF0.55383068940435742
aF0.62585996278236489
aF0.38369313684019768
aF0.38702071540542177
aF0.55793713765518582
aF0.5450317821106152
aF0.33035932807114782
aF0.40902303623219588
aF0.65307214507824651
aF0.5561936882346018
aF0.52232978181334611
aF0.56174467252083127
aF0.31978602704508025
aF0.49148104247155139
aF0.46561537745810111
aF0.63676840682247182
aF0.36901856489667051
aF0.57770259645946009
aF0.44281664940745674
aF0.56867876691528729
aF0.38311562890498224
aF0.22963579657680647
aF0.22266795391680522
aF0.92167063202543087
aF0.21956691301487494
aF0.64567837062754718
aF0.60068851159132464
aF0.38376351128630132
aF0.27385821359083579
aF0.41690351929091285
aF0.64358720189751095
aF0.4571416908532302
aF0.45056458320692877
aF0.77984824274283493
aF0.37776629143655793
aF0.32622381335434664
aF0.37776629143655793
aF0.5149246792161094
aF0.46069149836938345
aF0.46084669042412058
aF0.55698855103986999
aF0.44642733614402502
aF0.64194447620365802
aF0.4449074814545253
aF0.43665461861836763
aF0.67899301403489332
aF0.45598434266633625
aF0.42078127045277913
aF0.39241545404214845
aF0.61583625497892136
aF0.4682793611928705
aF0.41903172710811099
aF0.47526051657078311
aF0.42091750058424243
aF0.59624749669529553
aF0.61663005450004604
aF0.2951012644394771
aF0.72746860466859042
aF0.22258628369775393
aF0.55810528275153426
aF0.33130540124783187
aF0.58079304618880401
aF0.53688276527334866
aF0.47859784903459701
aF0.38128786074385995
aF0.50461558909829085
aF0.68107362539141736
aF0.35000208878705469
aF0.39874849451737748
aF0.63949419022243303
aF0.41415358716859346
aF0.45889605955190926
aF0.4570977941697722
aF0.48799859965326531
aF0.48888053876035503
aF0.48959448946609441
aF0.53211880387961441
aF0.4471462923468642
aF0.49638618598378553
aF0.359246702292702
aF0.65161549589979983
aF0.605932390847851
aF0.50684581087075986
aF0.53855401046307794
aF0.29310892094629981
aF0.440270104017148
aF0.40702836272561638
aF0.68922276129958648
aF0.40677036857692456
aF0.30320391606033448
aF0.30188745296936831
aF0.84992896158932096
aF0.30749327029553625
aF0.55276603164586635
aF0.37558124053523051
aF0.41669739040769088
aF0.61623999451830369
aF0.49768276772895526
aF0.46829526648918351
aF0.37182302263579731
aF0.62829853248869738
aF0.68410002252472057
aF0.33913782470093784
aF0.48363322535921971
aF0.42789204055162222
aF0.53028446776697535
aF0.44275867927116958
aF0.53231816101096252
aF0.48928571472407845
aF-0.5
aF-0.5
aF-0.5
aF-0.5
aF0.46664781640208569
aF0.58889969422380151
aF0.46646900171395483
aF0.46673722374615118
aF0.59067145927154974
aF0.41714999983936141
aF0.48835133866706482
aF0.4884732079225273
aF0.44203659735178302
aF0.40378860750957862
aF0.77797398123938288
aF0.19056466503965852
aF0.75595706245977001
aF0.29930374882966149
aF0.39828926149886945
aF0.42463142821556626
aF0.34367601234837997
aF0.69023747272969649
aF0.48345426298100808
aF0.41440439836170639
aF0.27226708807938449
aF0.83642150586941277
aF0.34873639885570279
aF0.32350057400424032
aF0.34954556433261919
aF0.68605968293374242
aF0.41621927167949929
aF0.48363367106812449
aF0.32937298410173432
aF0.64858741700338995
aF0.49916615773401096
aF0.47083006151036488
aF0.5
aF0.5
aF0.5
aF0.5
aF0.52296323184176519
aF0.62771403615395893
aF0.49660521378191269
aF0.293032094831852
aF0.45704267073290455
aF0.46595721668911899
aF0.28920339241921822
aF0.70025514432803615
aF0.42739099066634645
aF0.54895356882197244
aF0.57734206625890139
aF0.42739099066634645
aF0.5344604279267775
aF0.5006028359040352
aF0.56586963229801213
aF0.37886727347195881
aF0.60497984246670622
aF0.45970983247006281
aF0.45970983247006281
aF0.45970983247006281
aF0.47163768400726536
aF0.47912278802718844
aF0.64826320164033346
aF0.35742701411105049
aF0.53457053425355139
aF0.60576795864274302
aF0.45222136201833452
aF0.37785627416249046
aF0.82390560112436728
aF0.32741528014348459
aF0.31885189309948792
aF0.33513022100570283
aF0.34578251522051118
aF0.68723704404349562
aF0.36470856900976928
aF0.52452584031006677
aF0.54204399811208537
aF0.2983399824706448
aF0.54324619901172799
aF0.56750782041253922
aF0.36646814208759754
aF0.45286047501281301
aF0.52806395975602938
aF0.61787292011611616
aF0.5
aF0.5
aF0.5
aF0.5
aF0.55608784069561057
aF0.56985277196333028
aF0.5559348970148581
aF0.23868498485929293
aF0.44241075112406197
aF0.48591817371777302
aF0.61034149327303089
aF0.44231156137939059
aF0.45430635817581966
aF0.25447841870613275
aF0.80084487590510867
aF0.2957937661114266
aF0.62466812079869094
aF0.55749724967798908
aF0.3591854592623126
aF0.41227704436923385
aF0.55291630526459157
aF0.40540707015091759
aF0.60472150101426236
aF0.40526605218702871
aF0.5297952184077096
aF0.35862622688427603
aF0.62199456317135771
aF0.45147205819225045
aF0.4506389637606722
aF0.45042435787816482
aF0.45067473140775671
aF0.62524771782174204
aF0.46294231273942182
aF0.49566390434118945
aF0.54685566548860987
aF0.4908671817627791
aF0.6058907733238913
aF0.46765743603537041
aF0.50046018403230708
aF0.40463872469173012
aF0.66925445296382335
aF0.30251796106866247
aF0.56108835638829091
aF0.38178687345748141
aF0.40489707486961923
aF0.50840211636201815
aF0.50827178877492163
aF0.56501808429128031
aF0.55435042600331474
aF0.61813521078617439
aF0.49362904635428617
aF0.25871766652401823
aF0.58125577052763155
aF0.3572215472631014
aF0.68863884783035534
aF0.24558304635737005
aF0.81447717819197474
aF0.24183143723678885
aF0.29243533977056102
aF0.43889184797818226
aF0.72769006120131174
aF-0.19192381699529296
aF0.22551288544985509
aF0.61868922876907195
aF0.61732254616621829
aF0.52535340948467391
aF0.45690140588642242
aF0.36627554441526172
aF0.54683076880211201
aF0.54784784612977111
aF0.5463865281302609
aF0.31984466489222746
aF0.50414348114637153
aF0.47742294177971639
aF0.52675858965721523
aF0.49033873322669647
aF0.56326949642835211
aF0.47781430614592579
aF0.4771333198745627
aF0.47619823424821339
aF0.27365527061744632
aF0.21010893796843699
aF0.89205391138887813
aF0.29190211754091649
aF0.28003773990571751
aF0.40304985340092936
aF0.63693357511281823
aF0.59451265823024391
aF0.44934188511363155
aF0.48347269427469736
aF0.59415299347918349
aF0.45970451869980372
aF0.37635055567347592
aF0.22495179763832998
aF0.86997977242396374
aF0.22559287124529839
aF0.64242403163643902
aF0.38761696694024617
aF0.42444366964384794
aF0.50684516552423764
aF0.4724167956933496
aF0.41961144616805968
aF0.4393322110102385
aF0.63854194361876715
aF0.58419972415021815
aF0.31877690416841536
aF0.5109999522241746
aF0.54403218332971925
aF0.50747655999137375
aF0.64675953449464574
aF0.40018314102625013
aF0.40499765337339305
aF0.56684385711618723
aF0.60132349192814771
aF0.328416492932945
aF0.45742836256031094
aF0.57488645124962912
aF0.32085380397393432
aF0.58297867599951414
aF0.47612421485880924
aF0.55029847225314288
aF0.56661789242031313
aF0.33602577337942624
aF0.51303258673282914
aF0.51067706858993989
aF0.58305036223918705
aF0.5107441198105791
aF0.37202372342104101
aF0.48917135077597867
aF0.617986000471071
aF0.37365517918931518
aF0.48906696869321958
aF0.46505548414724096
aF0.68154746197376403
aF0.47216494118579105
aF0.3102849046549227
aF0.30943750945893517
aF0.36752611614297587
aF0.62015037760720226
aF0.62015037760720226
aF0.25166519239541191
aF0.34485434015399119
aF0.326706348302295
aF0.84320998392601776
aF0.39128731760839036
aF0.39128731760839036
aF0.6002646769050165
aF0.57746929599570695
aF0.52071440797716029
aF0.4331758927935459
aF0.59462071703736019
aF0.4331758927935459
aF0.55942266806653806
aF0.3877852549755112
aF0.53445842130309984
aF0.50102202583827782
aF0.3800010840547039
aF0.42409771433866783
aF0.73858051649944634
aF0.36088658253996986
aF0.46091889147885917
aF0.44681891256791545
aF0.61766227776726479
aF0.45431260765345199
aF0.43117707455965731
aF0.63088299864663477
aF0.45863817448124933
aF0.45356807350309941
aF0.32808811841860025
aF0.39296864111912733
aF0.58915855213109669
aF0.6251608065932468
aF0.43899462742779194
aF0.42669193664183075
aF0.65934040257520254
aF0.43644924312724825
aF0.33876505643551286
aF0.34171859641410685
aF0.7978340825434691
aF0.3632181357463275
aF0.43486367881318294
aF0.45261918557654107
aF0.43566057920353524
aF0.64515836305912799
aF0.35170572912450931
aF0.35135781376653213
aF0.54267055178203372
aF0.67702248045008318
aF0.37218512934898801
aF0.14606101167485511
aF0.35698678719396942
aF0.84421848127657262
aF0.41858508896277069
aF0.53206552045707789
aF0.60537536168628259
aF0.41858508896277069
aF0.61543209395123311
aF0.65539887579672951
aF0.3095930000332564
aF0.3095930000332564
aF0.64391881184926303
aF0.40542054225651564
aF0.336810417552247
aF0.55458226647752384
aF0.55050636236971107
aF0.56751436724316284
aF0.40634974422115228
aF0.45798479596430369
aF0.47229854611023442
aF0.47012270784039983
aF0.52206126643631146
aF0.53232579967711835
aF0.81545458846147201
aF0.27789691260012184
aF0.33717087434689447
aF0.37963524812193383
aF0.55893143551823243
aF0.42708414153475149
aF0.43907907810391078
aF0.55893143551823243
aF0.34197370837861113
aF0.3140152291225724
aF0.75750702936752479
aF0.45894609608936326
aF0.33926226008408716
aF0.3366194367547759
aF0.33668550733800867
aF0.81131457698606779
aF0.37164521926358407
aF0.38423958143903103
aF0.34363464335311089
aF0.77211074784752287
aF0.2970693180869684
aF0.77430265089528272
aF0.35485402129281957
aF0.43160612674080134
aF0.58288713827262373
aF0.60865494247476837
aF0.38657653562093469
aF0.37462024390668475
aF0.36302573912761055
aF0.64358615233861927
aF0.36306654099092417
aF0.5676194711791599
aF0.67241379630409737
aF0.37820744986796156
aF0.51117817507211205
aF0.37883464035675302
aF0.45995649029036006
aF0.49170685265903796
aF0.50535417131102645
aF0.53970506726031653
aF0.49833798931199919
aF0.49930976515747039
aF0.5020631300529721
aF0.50028154100294153
aF0.42804810275119054
aF0.65306967742577438
aF0.35010444102811439
aF0.51739897422636294
aF0.43307943089892209
aF0.52037490868503367
aF0.52040087573910443
aF0.52041818710848486
aF0.41026142093476925
aF0.41026142093476925
aF0.70360265738394712
aF0.41026142093476925
aF0.8189972584078884
aF0.27430828535656171
aF0.27074687566147548
aF0.42508185638139762
aF0.5
aF0.5
aF0.5
aF0.5
aF0.44928475027700671
aF0.45091331010855523
aF0.44849373550168314
aF0.62743427476606672
aF0.36939941704561485
aF0.55946064827462505
aF0.48815747204490667
aF0.55879346471234093
aF0.53819325019150477
aF0.4876724100323106
aF0.53929920489018612
aF0.42623938525949862
aF0.3048547781677946
aF0.31562916718813322
aF0.6987870023695868
aF0.56492346239797608
aF0.3748453200301588
aF0.5913799551718506
aF0.39473548521151114
aF0.59493245951726381
aF0.47233818875181699
aF0.61363555849582707
aF0.28125197984184741
aF0.56678510974725538
aF0.59576772799784694
aF0.27777403026913555
aF0.39585990763633505
aF0.64124670440515863
aF0.43035163886780936
aF0.45328779687115217
aF0.6477044865840822
aF0.43566792192028347
aF0.54556865021557166
aF0.7051835280220371
aF0.32021167975914927
aF0.32021167975914927
aF0.37941660538981742
aF0.37942970663121023
aF0.67995093888791869
aF0.49974279182961628
aF0.46104885792193728
aF0.55731026912190385
aF0.46104885792193728
aF0.51407505789429786
aF0.51667614407159235
aF0.51667614407159235
aF0.51668305575086215
aF0.44624000738904346
aF0.4806768534326023
aF0.5353175275262978
aF0.48094595484832825
aF0.50107474074462577
aF0.44553381081398241
aF0.62651819490288485
aF0.44630593314377859
aF0.45802356808123118
aF0.4997240021662307
aF0.50615572955449095
aF0.49634275119640248
aF0.49772097849388675
aF0.46674318095952255
aF0.44766138122777005
aF0.61688781531804926
aF0.4485526882063644
aF0.34364563161178308
aF0.34733355913467273
aF0.80313859054401726
aF0.34093325292782595
aF0.41405020789250035
aF0.28528692322768262
aF0.59966197611642169
aF0.62255868091257671
aF0.75824105963283051
aF0.30033004618865733
aF0.42252823470064665
aF0.39540137799956715
aF0.46593840107171514
aF0.5892067168463847
aF0.46706132749297047
aF0.46646604119736523
aF0.66774978908491101
aF0.6678185889967907
aF0.21610593886061649
aF0.24784425463698759
aF0.37642755065348116
aF0.24056578811628776
aF0.79472514942224681
aF0.41090429247307408
aF0.56930519288059134
aF0.53032643772756327
aF0.3481209081311103
aF0.52293144878497855
aF0.28931055291265612
aF0.52703514372355909
aF0.70744394575924929
aF0.37155944997031742
aF0.58555080707705143
aF0.56183080149027065
aF0.40684416269592905
aF0.41946898587197401
aF0.53384354114582688
aF0.36776156743882732
aF0.34870082737274394
aF0.6768827343649596
aF0.70676400621690161
aF0.42007785376780976
aF0.40642854784974325
aF0.39854117953207202
aF0.35656408719776378
aF0.85281368166628291
aF0.27016391762352426
aF0.26941108681332127
aF0.27772773665911166
aF0.23509096070902388
aF0.29098199456614637
aF0.88483276573679304
aF0.32044404168316065
aF0.60332589455365004
aF0.65885882180077315
aF0.31498973641389627
aF0.42912715393759615
aF0.49240333619596593
aF0.26413643273681603
aF0.70966244451680738
aF0.46833043943620062
aF0.46770453650322297
aF0.43020891367736513
aF0.61387242699468259
aF0.5711980677467775
aF0.40310679380785974
aF0.55164772759121294
aF0.45488731003595428
aF0.48452280911071527
aF0.48446006708504069
aF0.54391790970357079
aF0.48444751867990576
aF0.3226046790950674
aF0.47315319847055665
aF0.21463287757631636
aF0.79119213827385859
aF0.47311344198254751
aF0.50379182047008186
aF0.54667910390531127
aF0.47275726329285872
aF0.59386146037877474
aF0.39905468017180684
aF0.46681488980296515
aF0.5197766700882327
aF0.46758066802005355
aF0.49576908701527223
aF0.56375047133204714
aF0.46665483746218528
aF0.54344032118908792
aF0.52855744753220169
aF0.46097835108052143
aF0.46130098829205685
aF0.50278044268190625
aF0.45037055082563027
aF0.50873587576729495
aF0.5343837592151246
aF0.51815657038820362
aF0.45428787197222015
aF0.50578903707766965
aF0.51895447576307674
aF0.31338854606264849
aF0.3136961381853009
aF0.44625092636891522
aF0.77733034341858342
aF0.44002571055541823
aF0.65023198099541002
aF0.43793201662783549
aF0.43793982891861005
aF0.49225678265799
aF0.52110687786465015
aF0.45473351473594581
aF0.52853411653861526
aF0.45624262655590792
aF0.69691248484156876
aF0.37186070368504998
aF0.40972584887968222
aF0.4348344426332586
aF0.47053648863888714
aF0.65405889927959038
aF0.40214596433680677
aF0.52514588782943983
aF0.48475425551907436
aF0.43458127841236349
aF0.54806406624176085
aF0.52797095886363843
aF0.5279651648585888
aF0.40467823265569763
aF0.52795357684848976
aF0.29162571408372545
aF0.63642088581025014
aF0.65573436999566936
aF0.28272837670816864
aF0.51313247406954399
aF0.48740352482293448
aF0.57523658785802256
aF0.41016549834781019
aF0.4723690445516977
aF0.47184493601248417
aF0.57626948530926247
aF0.4713208274732707
aF0.588126104580454
aF0.39030116508822038
aF0.588126104580454
aF0.3948168825580024
aF0.48114262394311036
aF0.47503525235865041
aF0.59760036662603677
aF0.43094905296347796
aF0.42496489009700839
aF0.52820354491938026
aF0.6178549157233556
aF0.39832293486055154
aF0.52853099578457308
aF0.45135026138800061
aF0.47181765122154162
aF0.542518231984639
aF0.50424113486694144
aF0.50491616491817748
aF0.52984572301727539
aF0.4583274529337289
aF0.42940489307161206
aF0.39958420128602795
aF0.67267993961685357
aF0.45104944598772184
aF0.82547724806503919
aF0.29542060717384722
aF0.29542060717384722
aF0.37952686682373432
aF0.44108006337396094
aF0.56092949336515652
aF0.54460467465765083
aF0.44069516619559801
aF0.43556766667515334
aF0.45201569338226261
aF0.44270737806525756
aF0.64029118226780235
aF0.49384925805669372
aF0.4938298217497526
aF0.45425224591557861
aF0.55308219511037737
aF0.5065735816924174
aF0.45019642470969445
aF0.38162985188358467
aF0.62854199673628597
aF0.40448072244002309
aF0.40317859702515474
aF0.70002656290537135
aF0.42872505793587212
aF0.66920596502327212
aF0.32424954388487209
aF0.48505347709384689
aF0.46016163902143392
aF0.43188690578527666
aF0.65741598979477855
aF0.44174764944348122
aF0.43143589464082654
aF0.44826601821337353
aF0.51601995041606807
aF0.51589185827352402
aF0.51636864569299368
aF0.44191282633344797
aF0.55274767987118478
aF0.4401180868211102
aF0.55270166090932993
aF0.53757779948514139
aF0.42924133384731428
aF0.58333187451285595
aF0.43184014518686115
aF0.22782405159406419
aF0.28844831344585975
aF0.91904589042723039
aF0.14229695455041766
aF0.83524802021167222
aF0.25968483172289969
aF0.35543485962524246
aF0.32953086876454468
aF0.4958988186765812
aF0.32194194397896941
aF0.39024798299269919
aF0.70579335368955087
aF0.43408910151093155
aF0.59187777068483871
aF0.51857282334377852
aF0.43855396863765794
aF0.31833271091856402
aF0.7924922056469722
aF0.43689735847981226
aF0.28238464423795662
aF0.6460746415425046
aF0.45584669646311116
aF0.40641912036971517
aF0.45783713859548275
aF0.53375661893738413
aF0.4792798359636215
aF0.53544610945825855
aF0.44574900386341965
aF0.53595059183275251
aF0.47668858235439748
aF0.50240730562985447
aF0.48281658817487533
aF0.5
aF0.5
aF0.5
aF0.5
aF0.45256543592320997
aF0.4508838019129312
aF0.62225199584855062
aF0.4524276484065391
aF0.43373521421935923
aF0.43373194310669477
aF0.71931678981214342
aF0.32608851769010505
aF0.5
aF0.5
aF0.5
aF0.5
aF0.37396473191271729
aF0.44278185240640422
aF0.33606071513506769
aF0.74240003112062802
aF0.50419221752657628
aF0.63114551643662287
aF0.41637564359007279
aF0.41722520093174459
aF0.39248706013004581
aF0.41105216933832744
aF0.68688393131083525
aF0.45296852718450586
aF0.68281715748422056
aF0.43545941829215645
aF0.32197548002844617
aF0.49037497359294102
aF0.43333998808685231
aF0.66385248089523141
aF0.43097593498680326
aF0.43101749592839467
aF0.78518435620910731
aF0.30728296444401787
aF0.29462029348304197
aF0.44973502109014413
aF0.44721976820862896
aF0.49710305165243174
aF0.44726732180908929
aF0.5939991395641786
aF0.50111280961596072
aF0.49568578410369102
aF0.50774584079762375
aF0.49535413254460786
aF0.53925935891652599
aF0.51039473962990234
aF0.53935475305849845
aF0.39723167538889431
aF0.58004634064338134
aF0.36419251347043224
aF0.55995486033852926
aF0.46621948717483874
aF0.46491965055371864
aF0.61813776661238717
aF0.44899856118590958
aF0.44738765301407341
aF0.62965257470084279
aF0.34905480485104112
aF0.59004959864965834
aF0.36543104618570388
aF0.59425578025277626
aF0.50265971871090032
aF0.42002495567184506
aF0.46666080983355263
aF0.36611607012574088
aF0.5418807566673417
aF0.38862960348796843
aF0.64906956487120637
aF0.32925433186386227
aF0.49586456556962533
aF0.73260903445525638
aF0.3301422726581153
aF0.43066462958389112
aF0.43063716624153547
aF0.54766849765165593
aF0.57370621798687893
aF0.54307712762166571
aF0.43478294923096905
aF0.46065291246177265
aF0.5512076874942039
aF0.5
aF0.5
aF0.5
aF0.5
aF0.55745621330545569
aF0.48825761005628249
aF0.58471857734133748
aF0.33007766022739576
aF0.3712734601239418
aF0.43296251022409959
aF0.72123589393385446
aF0.39308811715628861
aF0.43086122436850066
aF0.5742503065436203
aF0.41025049137140623
aF0.56239641277283625
aF0.26754979824240288
aF0.69462915488557364
aF0.61251875884904639
aF0.26594776310664314
aF0.38241639403981514
aF0.40809462196019486
aF0.66676561350935393
aF0.49258511725207998
aF-0.0021935589813073288
aF-0.0027234041458743157
aF0.99994074961608514
aF-0.01030866752181531
aF0.29554551587352279
aF0.54309685252610262
aF0.72825236344988764
aF0.29554551587352279
aF0.51599277005802868
aF0.35032671880854582
aF0.30916936751199336
aF0.71793938012127079
aF0.56964738142920113
aF0.40622763774294285
aF0.53116852839120066
aF0.47785035483022181
aF0.66606243097989293
aF0.43213274500036197
aF0.42212080148439812
aF0.43753417888180685
aF0.62615073343664507
aF0.4207159569496266
aF0.45687514629689929
aF0.4713792987403016
aF0.50068810737766845
aF0.49873022435258768
aF0.50021001966224188
aF0.5003693822340507
aF0.77085325518391468
aF0.24564378341118903
aF0.46432163205918953
aF0.36034679497074745
aF0.44589180071470236
aF0.44934910127993821
aF0.53146580129015231
aF0.56285876496091669
aF0.36457974817653088
aF0.36739403222029893
aF0.54247045558076734
aF0.66168650970867016
aF0.45681565119946793
aF0.44551378610740955
aF0.53829423775381957
aF0.55052360604108697
aF0.46601159402987441
aF0.58769417831697879
aF0.46598664827891018
aF0.46936679753456584
aF0.49796702809210008
aF0.37146020789576051
aF0.60508927141719726
aF0.49790875318572714
aF0.46706998705955588
aF0.30325712719932008
aF0.64538043673303069
aF0.52284302986009512
aF0.47913319180227504
aF0.52403342270765685
aF0.59437019854678319
aF0.3775505575126597
aF0.46631064158671737
aF0.7026623871662836
aF0.38000951843837844
aF0.38001673792215468
aF0.50057651339857046
aF0.56891273921488339
aF0.54920404458698624
aF0.35232991187528251
aF0.4784334565934531
aF0.5496288551628582
aF0.44182174181119632
aF0.52326197802566066
aF0.51959256696921685
aF0.50429289328040416
aF0.5891253285022211
aF0.35866919222923122
aF0.4499613927631505
aF0.48741240383090623
aF0.5694164860543427
aF0.48551906144244006
aF0.47593568058308461
aF0.6427793513057104
aF0.45208810981188141
aF0.39488767320549073
aF0.59262624905058114
aF0.34590778304775227
aF0.47296491550291953
aF0.55267180429848606
aF0.56154059365368725
aF0.4433359001938415
aF0.58970558708875809
aF0.37466353149817477
aF0.33992109129052644
aF0.57928902681058847
aF0.66595879048597928
aF0.32461787456508107
aF0.75569492698408292
aF0.38768750701324628
aF0.39185460933592914
aF0.353657375688055
aF0.58235602969080591
aF0.56382970386823861
aF0.57890034197260687
aF0.088498100446361389
aF0.65902746725308714
aF0.30464267377683962
aF0.65350113761655892
aF0.21403715063965556
aF0.46221808392287889
aF0.46225469849559975
aF0.6727244371235116
aF0.3465788053390732
aF0.45621935307041706
aF0.45626324796586804
aF0.61364462360019578
aF0.4551132017050496
aF0.40288395989274423
aF0.39489871654524505
aF0.76909618315699113
aF0.30038405348055319
aF0.50562839127933834
aF0.48282724462024301
aF0.50557777927075287
aF0.50557777927075287
aF0.46561113265017573
aF0.532784976952423
aF0.46420535307106564
aF0.532784976952423
aF0.51401472252177616
aF0.36717315881390777
aF0.2775054115262981
aF0.72385321927245605
aF0.62086132808662153
aF0.3902062844716303
aF0.49859553536698636
aF0.46224750833019085
aF0.50495731510787378
aF0.49320060490639434
aF0.46835923926144191
aF0.53142346225722636
aF0.49158175165505347
aF0.41255848390785282
aF0.49107142028822343
aF0.58906004699988801
aF0.70982000213591423
aF0.2992878474848516
aF0.46218127484916277
aF0.43928443871193262
aF0.57616653368750925
aF0.50801589949946391
aF0.45644615450847054
aF0.44900877424466901
aF0.55687348233028688
aF0.45434326072473979
aF0.44877673268100204
aF0.53109657343605154
aF0.43435720813698026
aF0.45650992437206761
aF0.65104861538936987
aF0.42316451303109248
aF0.61414950805692692
aF0.46379169212605881
aF0.56594011251912424
aF0.29568469204563597
aF0.45926136445897714
aF0.75362208826179178
aF0.43797106992844625
aF0.171213577455022
aF0.42551205332223002
aF0.28964255644076875
aF0.59181854951510571
aF0.62032047074539798
aF0.53109224162394708
aF0.53101051168534141
aF0.39220285478434125
aF0.53117397156255286
aF0.48773634698089657
aF0.48798834220769999
aF0.5351071299263378
aF0.48748435175409321
aF0.54914785642192154
aF0.17746459324594599
aF0.548252185416639
aF0.60527885401452675
aF0.26216025499342333
aF0.45110811753247676
aF0.70352641762767931
aF0.48251844182171155
aF0.35162968775740649
aF0.6098791479863499
aF0.52365132282976756
aF0.47978461796696598
aF0.63912052796479391
aF0.46989541646603961
aF0.42969959223760401
aF0.4313716596498281
aF0.75282487173672974
aF0.47924551877459182
aF0.31041113930582537
aF0.32744979741008839
aF0.67298004923826515
aF0.2170203984128273
aF0.67298004923826515
aF0.2170203984128273
aF0.20880291325858377
aF0.47730020907527959
aF0.52124019587587944
aF0.67593972514914191
aF0.41923964530465624
aF0.41541346359578102
aF0.42127269895194641
aF0.68862114924385354
aF0.7213529771402355
aF0.41052294211701051
aF0.39469010658001924
aF0.3941326123709703
aF0.61910312961625802
aF0.58588008568693339
aF0.36987399087751327
aF0.36966075118568886
aF0.45352716367082635
aF0.47820153347916383
aF0.44442399811046879
aF0.60673199610237938
aF0.47163327130931693
aF0.51739439827934608
aF0.50532445393569869
aF0.50449211121464876
aF0.43817264387781046
aF0.27994415062323469
aF0.74591723524552811
aF0.41622528137131781
aF0.41784649868826629
aF0.56963208050082803
aF0.62284179025966002
aF0.33614238159505661
aF0.21169195057132911
aF0.56407754265216925
aF0.56441575703574942
aF0.56430301890788948
aF0.33741717538385702
aF0.52360545636733857
aF0.54039147356215889
aF0.56565363175679262
aF0.67588139931051505
aF0.45488653123040701
aF0.28037270691687055
aF0.50759602341560406
aF0.19202571674805388
aF0.47864548897365
aF0.42770426096674108
aF0.74235684488220732
aF0.42254962607080099
aF0.36467640647409982
aF0.74530131532803601
aF0.36467640647409982
aF0.62666285692111034
aF0.37654758921947762
aF0.48174242721653676
aF0.48314574470649235
aF0.53841958911357179
aF0.38428977356254057
aF0.68519526040020828
aF0.30484942368178186
aF0.58270611238059811
aF0.4692027232779345
aF0.4692027232779345
aF0.4692027232779345
aF0.43986594128086914
aF0.40217746248220521
aF0.63719819342795936
aF0.48862020492875063
aF0.48050887358815159
aF0.54859654375677858
aF0.40859585246447155
aF0.54881917234185107
aF0.4301458489614346
aF0.43068879905996543
aF0.56099488096285488
aF0.56104050702155495
aF0.43908387738372912
aF0.47726309740219564
aF0.63979682443061336
aF0.41241400064526818
aF0.40609782089015678
aF0.55407344661285907
aF0.40513284525756033
aF0.60328646041522183
aF0.4822519455510868
aF0.49129345108437622
aF0.49865965644105897
aF0.52668999703039743
aF0.46483001130566037
aF0.50662666609493667
aF0.46766820471644571
aF0.5554718103454086
aF0.64442132146042552
aF0.47478016664697642
aF0.40790935040198939
aF0.43922080513165052
aF0.57062017636959672
aF0.56980148139486009
aF0.41639556622084961
aF0.41992096703042969
aF0.39592752111025681
aF0.6405757689525623
aF0.60881019117174284
aF0.2495079826052593
aF0.38430365415281387
aF0.74627883811239304
aF0.38430365415281387
aF0.38430365415281387
aF0.50434292856992091
aF0.50407082357703403
aF0.49335468871010141
aF0.49814853843772844
aF0.4048833348093489
aF0.35235896853664073
aF0.51489071466237168
aF0.66843114412774596
aF0.34994875621872068
aF0.66783155804097527
aF0.4705453444598845
aF0.45839279762302382
aF0.52591678541460118
aF0.34623720970012362
aF0.69545030308233935
aF0.34623720970012362
aF0.23548688208601237
aF0.927423467451156
aF0.19339325295177559
aF0.21686560377112335
aF0.47386604403256877
aF0.47409568682730935
aF0.4720112368442797
aF0.57261648975330681
aF0.49476912430633901
aF0.23689640120220395
aF0.61895582639944735
aF0.5621185761890104
aF0.59391014756017102
aF0.31443569747882527
aF0.64869258463289814
aF0.35720982547845853
aF0.68790618968759998
aF0.54602310796376841
aF0.34488378150523735
aF0.33120841929776229
aF0.46938016497389723
aF0.3135853614991897
aF0.34648421414561448
aF0.74919635018491337
aF0.44122299689431155
aF0.44198692728181765
aF0.44045906650680539
aF0.64495397809109833
aF0.51455094530069967
aF0.48461250488206825
aF0.48017814081832993
aF0.51943911855224756
aF0.45739205304673275
aF0.46583190148984793
aF0.58568806041078481
aF0.48037760694718107
aF0.46789432125861619
aF0.53058426122575797
aF0.47489834951100063
aF0.52347569523826332
aF0.44870920546672416
aF0.49278290352538678
aF0.49282131532428747
aF0.55942131715242105
aF0.56654907569775725
aF0.43208709503410103
aF0.55357715005508457
aF0.43113249247522367
aF0.36761707021379902
aF0.37973154157467487
aF0.55974793429917957
aF0.63823498499263187
aF0.3767702294218282
aF0.5900694249078402
aF0.49704676365868922
aF0.51264684018023243
aF0.44965391999244436
aF0.43431943775911047
aF0.58865646134929239
aF0.51250516946833558
aF0.44404323209189894
aF0.39564380755121331
aF0.67458992326828926
aF0.43728711506816909
aF0.40701866990353824
aF0.6348153891871432
aF0.32805576171911921
aF0.56896804937010204
aF0.65988854035009559
aF0.36376699426058301
aF0.41675457318767412
aF0.50846466340189334
aF0.60419387219096199
aF0.47218279433380367
aF0.47218279433380367
aF0.43478337396585587
aF0.46339252471977777
aF0.52072759217657261
aF0.51672464356480885
aF0.49709736019480183
aF0.4556537302456376
aF0.48766336019002954
aF0.52683819143177657
aF0.52631325775653803
aF0.50069357047139162
aF0.49882353756522502
aF0.50046985487832263
aF0.50001095109766824
aF0.50258294637675371
aF0.50474688225937103
aF0.43426831500787277
aF0.55140910170301749
aF0.41739045167917077
aF0.71213241722839316
aF0.42989902127318624
aF0.36584076138104127
aF0.58273451947866717
aF0.51853403501419759
aF0.39998706645366428
aF0.48119983479803241
aF0.56197978897501866
aF0.47569620646029032
aF0.47717058252972688
aF0.47979169554205858
aF0.45540199569148404
aF0.55742113731843235
aF0.51503534947672935
aF0.4654345139546725
aF0.5321993815752224
aF0.52699509925850174
aF0.48676898337732849
aF0.44955082074252145
aF0.46462799952729794
aF0.26927741770438757
aF0.78607940078937122
aF0.30608768355544941
aF0.45205498306438152
aF0.27800450594941273
aF0.77847764227652172
aF0.33516018175504186
aF0.5
aF0.5
aF0.5
aF0.5
aF0.69618872449502567
aF0.37013434058250189
aF0.36701602909805664
aF0.49357984581285347
aF0.36606542325871883
aF0.41620256304995146
aF0.6829765119101493
aF0.47572535835722696
aF0.34158842991883304
aF0.64245605037340747
aF0.52739475111659062
aF0.43865971364926792
aF0.35957880130930425
aF0.33107725226968499
aF0.64865498474614569
aF0.58338464964592318
aF0.22524877238601662
aF0.24854548547547622
aF0.53485219892616909
aF0.77551354436411613
aF0.6386582684152301
aF0.33843986598380671
aF0.44225038464391353
aF0.53102605452089957
aF0.41242633025932185
aF0.79773001004883914
aF0.33063785782226396
aF0.29018952453700342
aF0.39654801311670651
aF0.50286777724099363
aF0.44619325332450172
aF0.62512818892895228
aF0.56801979803379288
aF0.51055391963612407
aF0.41261226151123281
aF0.49642655633681149
aF0.45255721153705408
aF0.45266774696928924
aF0.45268985405573636
aF0.62077030951435619
aF0.31064032898402977
aF0.39009505382463511
aF0.39686184540512115
aF0.77060308243082598
aF0.46092647008583659
aF0.46267762592453127
aF0.60029145590392308
aF0.46165611835195935
aF0.49671094203934102
aF0.46257835184830276
aF0.48746594655281372
aF0.54925081648648244
aF0.4461129273969161
aF0.44569485432346467
aF0.47621147236074735
aF0.61283112390849459
aF0.57643115057340422
aF0.47185434550320482
aF0.47152672625463887
aF0.47195672651838172
aF0.46576397533874386
aF0.50462581919994265
aF0.40924001274434713
aF0.60078225160405951
aF0.37638253958293666
aF0.44861328278202867
aF0.68766997194602431
aF0.42917632284689811
aF0.47426615274140893
aF0.47426615274140893
aF0.45387255342927818
aF0.58663697289832673
aF0.57590399853164798
aF0.5569411734525701
aF0.29821541099393906
aF0.51886287440348811
aF0.42155516577882851
aF0.50004898393980535
aF0.39349082458629825
aF0.64607060514493919
aF-0.002760907492090185
aF-0.0049497060975772821
aF-0.0048018577336236754
aF0.99997240960022171
aF-0.0016784180280562627
aF-0.00099797828695237251
aF0.99997424352627717
aF-0.0069064633722044867
aF0.54033347753111238
aF0.59411197424909168
aF0.45252399526905418
aF0.3876760617045043
aF0.54940524050358053
aF0.54940524050358053
aF0.54940524050358053
aF0.30734613243313902
aF0.46108586909693611
aF0.46175871266351765
aF0.50954163193849544
aF0.56084404063866899
aF0.54843474187325947
aF0.49458418621866701
aF0.4910953644402925
aF0.46198610333438234
aF0.38454055430201595
aF0.75651720904147601
aF0.31184841808792901
aF0.42727138759487532
aF0.649029148661045
aF0.40769952145735527
aF0.4963097466252363
aF0.40769952145735527
aF0.49009726953710514
aF0.50690443897336546
aF0.34641418288506393
aF0.61874855154371478
aF0.4980023433981417
aF0.10314761680843318
aF0.7353831707014381
aF0.44784576292044947
aF0.66513495127405453
aF0.37498528122414576
aF0.34294191456164486
aF0.5471493202917308
aF0.47881030358402182
aF0.47746034794165881
aF0.5594601083092432
aF0.47935028584096706
aF0.50313724241492352
aF0.48649861699873181
aF0.4866116127570761
aF0.52285863221657269
aF0.79874842077718866
aF0.31234336134778551
aF0.35406484588226378
aF0.37293520863319235
aF0.38847914342059359
aF0.23135104257240288
aF0.38718342449031662
aF0.80352327037106741
aF0.25556003423476864
aF0.2554104610461263
aF0.83793220503013444
aF0.40905279006928419
aF0.47511985471595697
aF0.7075862692655025
aF0.37178325457113204
aF0.36791304247350681
aF0.51717960344372871
aF0.55574685271265234
aF0.4862118686473052
aF0.43274555141360488
aF0.43957605298054936
aF0.66346546228053715
aF0.44051755055741559
aF0.41536822417923247
aF0.43893145648597065
aF0.48967813682197903
aF0.58443253522911587
aF0.47538732691493568
aF0.33821075844877474
aF0.56173797984819829
aF0.4463405015625444
aF0.6089696885153365
aF0.3794029825153043
aF0.3615105992948639
aF0.53570392016275137
aF0.66210631576675105
aF0.46205509013949869
aF0.40570614376166736
aF0.43158082355390714
aF0.66003455313396153
aF0.64387706493375285
aF0.42729750522291182
aF0.49943368887050893
aF0.39166970485827379
aF0.54143000443170342
aF0.48612172593791919
aF0.48338838324280714
aF0.48669794412769951
aF0.30788926242667464
aF0.24172305625520815
aF0.7630243257132735
aF0.51436178369587715
aF0.50792324115566079
aF0.50864316929396847
aF0.47437934657607
aF0.50819321420752617
aF0.34217452851670932
aF0.77752741186722463
aF0.24794547128252017
aF0.46571531980375297
aF0.32858925381067772
aF0.72410954408036099
aF0.32858925381067772
aF0.50963082003742266
aF0.62633977786502182
aF0.45006076765765329
aF0.45009898188598785
aF0.45006076765765329
aF0.45162193267556688
aF0.54803858852872922
aF0.45162193267556688
aF0.54011939914819718
aF0.42725122637648127
aF0.51228131363448626
aF0.48821085648162937
aF0.56273830940694947
aF0.49231306943791076
aF0.40706093035034518
aF0.60695309992203184
aF0.47279718182109592
aF0.68720001886261028
aF0.40995346080557343
aF0.40995346080557343
aF0.43775844254827834
aF0.42991987884242161
aF0.54883910735553221
aF0.59083400168673039
aF0.40602920395477088
aF0.37314210117965396
aF0.74403182438588866
aF0.29753272029609346
aF0.46760656216679158
aF0.36546438055193176
aF0.59995650678857848
aF0.46281757961619702
aF0.54063653641614373
aF0.38515207731671974
aF0.4430252386426532
aF0.67815688031144328
aF0.44214224063132296
aF0.35384383359180566
aF0.532113016918212
aF0.70640698040348782
aF0.30436730555774183
aF0.5
aF0.5
aF0.5
aF0.5
aF0.4109766682858581
aF-0.13113902240692646
aF0.66461662226841756
aF0.6100700618218623
aF0.49993034110819762
aF0.49993034110819762
aF0.5002089184713957
aF0.49993034110819762
aF0.5040508327250075
aF0.49591607962358569
aF0.49591607962358569
aF0.5040508327250075
aF0.66958802308604337
aF0.39650638637155339
aF0.31131206782109616
aF0.54545335394995043
aF0.37416784393040103
aF0.41431486539912749
aF0.36944927138794348
aF0.74286529919541644
aF0.47596095463017724
aF0.46596829054937455
aF0.46589234143202868
aF0.58247665023158335
aF0.64173038434625163
aF0.44278742597579562
aF0.44278742597579562
aF0.44278742597579562
aF0.41524083956228436
aF0.43035371469655526
aF0.68503290713764231
aF0.41605365224335605
aF0.43616755222237552
aF0.64759111619699727
aF0.45976659686678112
aF0.42308189398343143
aF0.39203064042262836
aF0.48808754395406934
aF0.67078835775551859
aF0.39764997863241824
aF0.31882848765397304
aF0.73956447203296805
aF0.39816639148183186
aF0.43915408669533557
aF0.36140553410031145
aF0.59407301800292167
aF0.62055515409367179
aF0.36245632830776764
aF0.36296079199713527
aF0.14081587542982937
aF0.68057210875116814
aF0.62068668222359269
aF0.46786876061363908
aF0.60791459697646433
aF0.4677981283268407
aF0.43898015531309048
aF0.17049271512926167
aF0.17093070056077575
aF0.81928735670401875
aF0.52007995235213267
aF0.62633370178429359
aF0.48869043967536652
aF0.48869043967536652
aF0.36065135844604451
aF0.51475910081411835
aF0.57647137441237795
aF0.35840824944155741
aF0.52368630815057848
aF0.50858430414373967
aF0.47809720400815797
aF0.60734704739732326
aF0.37933446075457433
aF0.58475007867958961
aF0.2884209686463633
aF0.48235013946052213
aF0.58499490022710643
aF0.40802615313190593
aF0.5878409237606026
aF0.48257237130003661
aF0.50505604953363292
aF0.75914624869589775
aF0.52018197032617086
aF0.36524771636482589
aF0.14036308819917109
aF0.45204899812890742
aF0.60933071609963962
aF0.45209059076330232
aF0.4690222590148998
aF0.42816804138338144
aF0.42861508860059977
aF0.4280935335138451
aF0.67059463219254112
aF0.49485565846009993
aF0.47341886071305467
aF0.49482622241787944
aF0.53492005871795989
aF0.38122626097898543
aF0.54733657165962757
aF0.52914082326948353
aF0.52449900325316257
aF0.29915785998321137
aF0.5569224460022516
aF0.55678995203798287
aF0.5388199265605117
aF0.53198652162679416
aF0.41933757129695759
aF0.60452485171129078
aF0.41916112149105067
aF0.32866971185717375
aF0.47349362268885703
aF0.50982432937483579
aF0.63863852292059842
aF0.44457010953515752
aF0.5054538630997083
aF0.41854546989045777
aF0.60966671191697452
aF0.49307495382036504
aF0.49298177844167407
aF0.41736995863393667
aF0.58279359439636513
aF0.43958887395337065
aF0.58783412561975046
aF0.48255784323746059
aF0.47786043002458539
aF0.37967302576625461
aF0.36880949217168729
aF0.74979169604280649
aF0.39703949996796351
aF0.59935364687443016
aF0.41450166520840565
aF0.6500362580075566
aF0.21544474649736275
aF0.68108257273207173
aF0.50227395526920682
aF0.2939791076488355
aF0.44432385401290742
aF0.4454098028894608
aF0.53911752902627075
aF0.4454098028894608
aF0.55908184094687896
aF0.31716483939837081
aF0.82603732354117398
aF0.4519180325961451
aF0.11330885482065894
aF0.78699238830694918
aF0.3416230508129634
aF0.33912101573008469
aF0.38591917364956524
aF0.9535193964548192
aF0.29671626680256147
aF-0.037149815606462869
aF-0.037149815606462869
aF0.16694276156138252
aF0.42402912974480977
aF0.88503139090689253
aF0.095125436133191008
aF0.68090726154592973
aF0.50443314893448155
aF0.51444322744352589
aF0.13137985069086691
aF0.22353256943952654
aF0.38261779025889026
aF0.29945084415784806
aF0.84496509330878244
aF0.579148651554523
aF0.45756161875678791
aF0.57919675630406398
aF0.34605681893309975
aF0.68237905287362599
aF0.59453685458964256
aF0.32942190714944464
aF0.26900922628038232
aF0.54688226512828897
aF0.54773373211251297
aF0.5258925003091095
aF0.35262533220527875
aF0.31288384299871025
aF0.66098167037372024
aF0.38633183449223724
aF0.56209843077363941
aF0.647573029792612
aF0.53167588579399028
aF0.3371971192674359
aF0.42926451787695585
aF0.52605131211938017
aF0.49149404561136412
aF0.18357930503334827
aF0.6693297086709401
aF0.40622658077023083
aF0.56435803812474394
aF0.40780619758476233
aF0.59175508032561486
aF0.55265454478944953
aF0.49446646934767363
aF0.43640932709125707
aF0.50953190679501958
aF0.56026595756190478
aF0.35276506306323058
aF0.35300882789944205
aF0.66109275786707777
aF0.44799277627145273
aF0.54386245922355203
aF0.55075142205553373
aF0.44742481933808032
aF0.51703551011725601
aF0.64287471229183113
aF0.34192757183896044
aF0.44996880024041286
aF0.89409947816729263
aF0.26711359437378845
aF0.26778997081031863
aF0.23984366236175395
aF0.57509973020863758
aF0.6027260574026293
aF0.39115026237212086
aF0.39113050544294758
aF0.77064113187244809
aF0.39444117904861137
aF0.27001731339325269
aF0.42144875442333851
aF0.51004869650519546
aF0.66510289710444082
aF0.50920543056473822
aF0.195443835768771
aF0.55910320119452261
aF0.56091985339985884
aF0.42888859584541894
aF0.43454240394887012
aF0.85558681143682902
aF0.29886183255859666
aF0.29911467021678873
aF0.29863560939074063
aF0.39332655127584515
aF0.33003237062388058
aF0.6860750343541232
aF0.51543564645629658
aF0.53785776305356658
aF0.36343761342464859
aF0.53787851441499668
aF0.53787436414271061
aF0.56767394130431836
aF0.41152475074243827
aF0.56752861325759418
aF0.43163057007620204
aF0.5000082535770618
aF0.49997523845131586
aF0.5000082535770618
aF0.5000082535770618
aF0.41102774467523279
aF0.49288410807895883
aF0.48734338724121024
aF0.59212994521698092
aF0.81086965074318285
aF0.38615116047068759
aF0.27810270334026477
aF0.34064142021428701
aF0.4954872267446902
aF0.48556514686467922
aF0.48029416907686207
aF0.53669023415179196
aF0.35463263186095628
aF0.54466184711031296
aF0.66620596236376484
aF0.36571680906505177
aF0.61686373874378142
aF0.61930775331649501
aF0.25926529290325512
aF0.41075362737401189
aF0.81946455681292374
aF0.28983816218012987
aF0.36609170614325554
aF0.33233799446431567
aF0.046438803165145058
aF0.27811557200444736
aF0.95829985063643686
aF0.046438803165145058
aF0.067822162139420925
aF0.61462858004348631
aF0.30670920632320259
aF0.7235753766353944
aF0.16863488926652453
aF0.30039332900068316
aF0.84066691402705085
aF0.41785794437127743
aF0.7224843981435306
aF0.25278459211604792
aF0.34660987782258618
aF0.54219723074146686
aF0.87095966650868506
aF0.232916096091138
aF0.3591743080975992
aF0.24119114390738886
aF0.60597240424788124
aF0.47812249206110452
aF0.3993148338653319
aF0.49471607142928353
aF0.3785902654756535
aF0.37847944942064293
aF0.37866868914535329
aF0.75500512654833074
aF0.34760102103396168
aF0.60491860989680712
aF0.62675613122335994
aF0.34702126383060189
aF0.71245797132288724
aF0.52303706306440623
aF0.30981297379204437
aF0.35050219832344315
aF0.49718945181750529
aF0.72137749029224829
aF0.29800583175418072
aF0.37895869133926041
aF0.3644641162817408
aF0.67051344057727136
aF0.36388987947631507
aF0.53400542091154146
aF0.45079596525513116
aF0.45515935789255885
aF0.58224809442983205
aF0.5005997534611436
aF0.4286116433942409
aF0.48930233201544332
aF0.50142871172366432
aF0.57047746150946521
aF0.37179681570723255
aF0.54104990277062404
aF0.54455723827724745
aF0.52200531106658032
aF0.5
aF0.5
aF0.5
aF0.5
aF0.55555890849667566
aF0.45517690411426687
aF0.55933179846390313
aF0.41390364141677893
aF0.45908628051404721
aF0.011538261938584825
aF0.45908628051404721
aF0.76049092210163283
aF0.35980695853974959
aF0.35980695853974959
aF0.76157876827601911
aF0.40134235371305066
aF0.59990814700644601
aF0.48436434078270646
aF0.44834536335392555
aF0.45220331234132183
aF0.61680955595931586
aF0.4837914844499101
aF0.43971799533717087
aF0.43833760485233758
aF0.25636837982666205
aF0.52485802481612509
aF0.63626542725180801
aF0.50395001110749305
aF0.22021417953047029
aF0.37409802398605313
aF0.52555346598345554
aF0.7316761154884236
aF0.54112524288534458
aF0.58734754300919689
aF0.55174552590813197
aF0.24038138420787736
aF0.21347596000883526
aF0.86500558400505323
aF0.31779099210157791
aF0.32434894708859124
aF0.34121533796354214
aF0.47656658705672439
aF0.34090060925663285
aF0.73501235081322813
aF0.65083404822966306
aF0.4594102629939758
aF0.41748983836227938
aF0.4371035195294502
aF0.43008548378235523
aF0.66657773906464834
aF0.43080041007420955
aF0.43024597743971033
aF0.50340273356097975
aF0.51000099837203072
aF0.50622725393623669
aF0.47981104288567816
aF0.72397945654045004
aF0.35781755521937197
aF0.46727024921208843
aF0.35983170772668033
aF0.56696894850239254
aF0.41633872181459608
aF0.53993258860595184
aF0.462256508783982
aF0.38771393051972675
aF0.38808518303254957
aF0.76385439671775779
aF0.33999155784590762
aF0.64308340322967406
aF0.50129093566581961
aF0.48857910001687904
aF0.31055047470020719
aF0.55599523580112298
aF0.43663308148668978
aF0.54350068377908034
aF0.4525791164532047
aF0.4401004161189051
aF0.48171837427680925
aF0.50191664160115612
aF0.56774881461777704
aF0.74889381752386086
aF0.37016033352399275
aF0.33549575741745258
aF0.4354101219710384
aF0.53299781715976957
aF0.38739299553169243
aF0.53343027379243235
aF0.53036981146897266
aF0.41151140061408953
aF0.46081652353759489
aF0.6382422782507351
aF0.45929651974804558
aF0.30126694455099218
aF0.37286929003173741
aF0.81592952601294833
aF0.32321158588828924
aF0.2744748666320862
aF0.29296776905998645
aF0.85521098616972824
aF0.32779201182138956
aF0.43975259488255963
aF0.44301901913165642
aF0.44347631852652991
aF0.64318003613905494
aF0.52180050699881508
aF0.56537136745609873
aF0.41536625327094256
aF0.48533526906692015
aF-0.0011696035933312443
aF0.99999326107598041
aF-0.0023421757237014006
aF-0.0025737216127365197
aF0.47764506484487579
aF0.48381327145090525
aF0.51782266052629533
aF0.51926833394958349
aF0.57062839510610053
aF0.4174406344233928
aF0.4169120061704526
aF0.57123631759698179
aF0.53311216011989226
aF0.37202096685248365
aF0.37393837180972694
aF0.66148463250686051
aF0.41745913724983008
aF0.41693061942402704
aF0.57122269346672327
aF0.57061489796704978
aF0.42552376576227885
aF0.42552376576227885
aF0.56473845696170644
aF0.56473845696170644
aF0.51957397330430621
aF0.18971850497299175
aF0.60302556978446631
aF0.57481295855409242
aF0.45016429128641539
aF0.38377647755829858
aF0.4614496124025606
aF0.66115957327794217
aF0.47114111733895991
aF0.41093354157405898
aF0.60712996702294408
aF0.49046189974830501
aF0.46405826926061805
aF0.4535397656564934
aF0.75394279450423285
aF0.10257614885654973
aF0.48650767073225876
aF0.5062103755145998
aF0.57921350275648098
aF0.41421378570082384
aF0.53772988840798164
aF0.48803830083804428
aF0.48651994677340732
aF0.48576076974108884
aF0.47429613639181761
aF0.56084370731626465
aF0.54005935376115233
aF0.41089342338692758
aF0.31083186891918335
aF0.54779715760918657
aF0.54727230851249997
aF0.55117587366910648
aF0.43587680349699798
aF0.28606781699466244
aF0.58070272963246305
aF0.62526870707764848
aF0.51929300376394427
aF0.41472397040602155
aF0.52822597656241199
aF0.52850366346617872
aF0.5278034375972297
aF0.48165349828765902
aF0.51853350055140601
aF0.46963437656725304
aF0.39046566066003502
aF0.53403241006374436
aF0.48811482280282376
aF0.56928891839469264
aF0.32429420266530212
aF0.22136592776489111
aF0.35563496111982473
aF0.84814749340652162
aF0.55160414798370627
aF0.55527135641357739
aF0.34337474003572865
aF0.51913425294348592
aF0.42734924330700857
aF0.4341086618871946
aF0.65697268745610571
aF0.44419498179981587
aF0.54837781509973393
aF0.41090517427336859
aF0.41123210140663186
aF0.60110470671464578
aF0.75194247363143474
aF0.46852300025506077
aF0.31476815845637884
aF0.34057263689705813
aF0.34116203471903056
aF0.84355233727339085
aF0.29295500617658937
aF0.29360736486512901
aF0.43531704018037926
aF0.51923955074029626
aF0.56144896096510866
aF0.47504150103628762
aF0.52829708655230401
aF0.33076981716730652
aF0.40814875390433697
aF0.66701432599142207
aF0.42512245076069877
aF0.66307664609502892
aF0.099126924926711921
aF0.60809054919243655
aF0.13486796562357667
aF0.5055057118180285
aF0.40398970975286658
aF0.75037785253943945
aF0.5052180455368398
aF0.54379287497360818
aF0.50822675114709082
aF0.43674890384561499
aF0.50993361420172956
aF0.58904636408577438
aF0.54528071544767565
aF0.30929117579614501
aF0.2819806125957649
aF0.70997313362501024
aF0.58072259974217588
aF0.28140068549932307
aF0.73219941881248762
aF0.41502061752502056
aF0.35839117335622411
aF0.40397730750644256
aF0.60273201206758442
aF0.51019994505669741
aF0.43382608133508066
aF0.43382608133508066
aF0.36754531521594103
aF0.56292958885740585
aF0.73550693000453926
aF0.083965916698052603
aF0.53811047661178235
aF0.46881446818731753
aF0.52044510161699631
aF0.46881446818731753
aF0.44414888321199908
aF0.54919103264859515
aF0.44467300879125821
aF0.55080567757824839
aF0.4692448680420559
aF0.4155352872626768
aF0.4155352872626768
aF0.65914346230182919
aF0.4963582813989012
aF0.49632363396513146
aF0.49616772051316754
aF0.51098816030818428
aF0.60698020272263331
aF0.26777125546919528
aF0.66278092510754716
aF0.34726795642677105
aF0.32129334229093537
aF0.45241572927194773
aF0.24083215366834035
aF0.79629797806243374
aF0.4037644134899
aF0.73329405305718709
aF0.40495699481618658
aF0.3677824934653135
aF0.4351965008915798
aF0.65344505642361705
aF0.4379558922398058
aF0.43795913085549038
aF0.56947875363812539
aF0.49389129689044986
aF0.62484630858793433
aF0.20330377924344831
aF0.59096356673288986
aF0.59133796035069408
aF0.38793339463327364
aF0.38805819250587509
aF0.44302844471064684
aF0.64738637454526915
aF0.4436090163843337
aF0.43339095492744428
aF0.50823039365601819
aF0.51381369771380336
aF0.48965542158639297
aF0.48778573074349857
aF0.49436426384219395
aF0.33913424258007974
aF0.62930478966870018
aF0.49453758385529656
aF0.41656682970462577
aF0.46145988544341054
aF0.44573489241901332
aF0.644086373242442
aF0.50296908123280215
aF0.5214175663617665
aF0.4846005825442008
aF0.4902123011624912
aF0.52029340959274917
aF0.38521246063277126
aF0.48444563061663926
aF0.58840339826010879
aF0.59667318550058779
aF0.59601944506116245
aF0.4270798903154493
aF0.32610534816483577
aF0.52299058610005555
aF0.52309040124857931
aF0.5056127687420594
aF0.44408671119198057
aF0.49079644765133523
aF0.49079644765133523
aF0.56176118553615262
aF0.45018003550876906
aF0.42819870046368119
aF0.42819870046368119
aF0.49373432486983265
aF0.62411390169404168
aF0.56936049945822997
aF0.4539186152280878
aF0.50868218571261314
aF0.45937887015483042
aF0.69302436207434026
aF0.44454879798336855
aF0.4184549145735264
aF0.38339155474822179
aF0.42456743497598298
aF0.67912503093558407
aF0.42351346038498705
aF0.42328245225545374
aF0.45308725415445711
aF0.67376718913436406
aF0.40041497429483952
aF0.42475588675051418
aF0.71519221193027327
aF0.34104881349496879
aF0.35162208345702467
aF0.49854560195963865
aF0.32682817821513749
aF0.39756377572182194
aF0.47625874031420345
aF0.71295441539604154
aF0.38222587037383976
aF0.63479653236694622
aF0.48400439300528653
aF0.46548522432344236
aF0.48840337880850954
aF0.63865461100553567
aF0.5088091064342789
aF0.30772669793072877
aF0.48065590608881786
aF0.56744173143895371
aF0.46011650995192216
aF0.48504904765720619
aF0.43475428236205838
aF0.46741037015354803
aF0.39384378211283461
aF0.66136475195752087
aF0.57977598504497174
aF0.370083622648407
aF0.51548999615315483
aF0.51104596982911865
aF0.51739195022174778
aF0.4940666519967174
aF0.4940666519967174
aF0.4940666519967174
aF0.5
aF0.5
aF0.5
aF0.5
aF0.4585191088000769
aF0.49666668395693031
aF0.57252091099029223
aF0.46400672235567419
aF0.31750567710063982
aF0.61748992786598766
aF0.69616610007546398
aF0.18234334399324967
aF0.60774102357934756
aF0.39371435530378429
aF0.60332270439494462
aF0.33412807282241708
aF0.3953261061687442
aF0.41430356701791532
aF0.61468871140493953
aF0.54242751793122113
aF0.69867696891667741
aF0.35087159462803852
aF0.51523695438242145
aF0.3510989860812877
aF0.41686466716613757
aF0.41686466716613757
aF0.41686466716613757
aF0.69186093097196644
aF0.62339882594876506
aF0.62342986824469815
aF0.34933610706877566
aF0.31729069870409432
aF0.58267751797174816
aF0.415564264064747
aF0.52011095777754746
aF0.46613071566067232
aF0.99998947598234933
aF-0.001620890649855325
aF-0.0016008796541780988
aF-0.0039821881397680203
aF0.20956137849683351
aF0.41804123176114905
aF0.32931830055083
aF0.82028959161532777
aF0.40684902030404341
aF0.21313241237103653
aF0.85805177786340159
aF0.22977292264320098
aF0.51009574435000593
aF0.4879103629853781
aF0.49143694211340888
aF0.51013286623556409
aF0.61761498490316913
aF0.38543603589296671
aF0.40373318952613985
aF0.55406705761417008
aF0.3322069310888392
aF0.65990968950380668
aF0.51520593073639664
aF0.43441984941939299
aF0.49418185874895459
aF0.42489732829482152
aF0.43574087825426217
aF0.62078695049876431
aF0.329345308261008
aF0.34688646101796894
aF0.49357803740540668
aF0.72634851970656455
aF0.43912454297029879
aF0.36620367114586161
aF0.71248167826943454
aF0.40673623533045311
aF0.50002247693265167
aF0.50383232763202812
aF0.49691262892201615
aF0.49920771970477296
aF0.47358663920677613
aF0.5720107475842594
aF0.47356066127420654
aF0.47356066127420654
aF0.58301731934620205
aF0.53845595422311887
aF0.44009102119478943
aF0.42009032810547609
aF0.597827886686633
aF0.32056550691640806
aF0.64885730277618481
aF0.3447082452005395
aF0.27936346781818261
aF-0.053218332988231545
aF0.56325525009523769
aF0.77580112472379426
aF0.55216627835388155
aF0.48202624691297263
aF0.48554686364775906
aF0.47645287441429318
aF0.57428851875588005
aF0.46209659414103355
aF0.39375222704817636
aF0.54919815968649721
aF0.22889639700557354
aF0.66818882617501774
aF0.66987802729346602
aF0.22889639700557354
aF0.50640653288046089
aF0.44095543419830019
aF0.54140707031433744
aF0.50595366657493979
aF0.50946591233292182
aF0.25228575658914382
aF0.38366938771771969
aF0.72773221869128268
aF0.2182567233060265
aF0.59352098242683471
aF0.33074858497882675
aF0.70050140591244026
aF0.5
aF0.5
aF0.5
aF0.5
aF0.5
aF0.5
aF0.5
aF0.5
aF0.56007845857091709
aF0.56085250228547345
aF0.47427392497538701
aF0.38317206971984469
aF0.54144352375246796
aF0.44531473573192193
aF0.55698158216096139
aF0.44531473573192193
aF-0.095678572249622867
aF0.73057805376787777
aF-0.095678572249622867
aF0.6692883750501627
aF0.54264815831058288
aF0.011695784662921215
aF0.3782249095975328
aF0.74989472772062427
aF0.43662636461455684
aF0.25234067209863964
aF0.41776586431122598
aF0.75574683958623168
aF0.4076055364202521
aF0.3931025016506039
aF0.6964110861647973
aF0.44083982231913049
aF0.58070375703929467
aF0.47945007244327748
aF0.46526231684657843
aF0.46523300733840678
aF0.48598322782597153
aF0.61749546101922581
aF0.38544330334021715
aF0.48368700396298109
aF0.52129457676266178
aF0.4024736577755626
aF0.505190015177991
aF0.5577185379732843
aF0.53335323417127989
aF0.55838003842278683
aF0.45061985302673346
aF0.44798192859552721
aF0.34756266486329068
aF0.71487888768184138
aF0.42814504324178582
aF0.4299304500583675
aF0.57759290878463365
aF0.39903024885557958
aF0.42605682650658599
aF0.57064601357329869
aF0.44130913604784022
aF0.50371281620484676
aF0.38750364505637952
aF0.63353024418705561
aF0.43054742651763855
aF0.56606071109564826
aF0.41700448288846736
aF0.56596064008361002
aF0.43433955337848812
aF0.44627105131753064
aF0.4637029446522245
aF0.63021494765498653
aF0.39125951860640573
aF0.39454029543340513
aF0.73846114979527622
aF0.38200664211796553
aF0.69375659293009539
aF0.3787941923233879
aF0.43853345269533073
aF0.42767412885888978
aF0.25648558338865074
aF0.78496666399255444
aF0.50003333470382949
aF0.26078563250139369
aF0.86282288631541315
aF0.32671312085998594
aF0.3273851937497485
aF0.20399543725708089
aF0.46707817107724575
aF0.51766942850428077
aF0.49614474770561834
aF0.51739417683166367
aF0.1364352672447933
aF0.20357240774741819
aF0.94924006044647791
aF0.19719787093000701
aF0.61471317820056803
aF0.45192439694011621
aF0.45682581681080159
aF0.45738629307404138
aF0.47709629354576844
aF0.47579762700583184
aF0.56176766152496216
aF0.48001337406918648
aF0.48519502426798017
aF0.42371512903550201
aF0.57290484050431201
aF0.50678528153326519
aF0.49059633680765408
aF0.23017598121879784
aF0.48570933320312903
aF0.68587221522689357
aF0.14407648529729788
aF0.27122001412764185
aF0.16395128340623041
aF0.93744421006822021
aF0.63819618973665637
aF0.43865924025290115
aF0.32764186336087875
aF0.54123424108215157
aF0.2847289129420601
aF0.29097101430056388
aF0.86252642381965539
aF0.30052201780337195
aF0.12601816488921022
aF0.94470260449090537
aF0.23748522446470452
aF0.18776895203149252
aF0.55921960095675227
aF0.38934290207143746
aF0.51750485555752046
aF0.51756571272327512
aF0.32721978242353356
aF0.6061776307725133
aF0.4233061524910835
aF0.58846222920839497
aF0.47834205896714627
aF0.60524572719314906
aF0.60438289643377363
aF0.19896682848110606
aF0.43959666898125205
aF0.18974524293263451
aF0.82028529793913418
aF0.31286345486478412
aF0.46851596590324929
aF0.50565646146981835
aF0.55260211711611318
aF0.46843914527541003
aF0.38585956848152719
aF0.42091980780778931
aF0.38632583803875203
aF0.72435575214804448
aF0.50118904247192331
aF0.495244634804616
aF0.50777821393383282
aF0.49568496129849055
aF0.71656997190462279
aF0.39495989942515453
aF0.36132205516151505
aF0.44719182200096075
aF0.30960054484838007
aF0.44056523082222149
aF0.7209858212350535
aF0.43615275489003191
aF0.48488372115179579
aF0.50253456688420739
aF0.48489477947279069
aF0.52652050186913257
aF0.54756362755570642
aF0.55034732004838605
aF0.45758004763832266
aF0.43348864010133564
aF0.25619270269220062
aF0.48056232246855279
aF0.47978916627346968
aF0.68791533580630781
aF0.4933111898373635
aF0.49041541455643356
aF0.487739571575321
aF0.52749113875610121
aF0.44922090105930035
aF0.59596098216553095
aF0.54695887241830687
aF0.37929814351069557
aF0.43308741558806568
aF0.39239012981614602
aF0.45976046284482341
aF0.66864459415060851
aF0.33671519699035229
aF0.56439799890053477
aF0.6743149494624664
aF0.33671519699035229
aF0.45565329150317596
aF0.45550014990079019
aF0.40323632415324939
aF0.64984625740713087
aF0.52610008956099485
aF0.486487217133658
aF0.45855409476281345
aF0.52562060985630965
aF0.48537572977382354
aF0.28459567012679088
aF0.64857882681908174
aF0.5126023906436592
aF-0.005317269040070384
aF-0.0049457064031557434
aF0.99996506179344469
aF-0.0041402693827631374
aF0.3490363976007626
aF0.44429833963303683
aF0.33928844528515806
aF0.752101010134403
aF0.34270233477773637
aF0.45361164969503126
aF0.70503030683660428
aF0.42393849487953339
aF0.48737134151516903
aF0.32656881255156822
aF0.6911442772286881
aF0.42206821035514813
aF0.43369844765954041
aF0.46915083596157209
aF0.31206411171121251
aF0.70314944343016783
aF0.47672383149133285
aF0.37152562828817137
aF0.49272791756659634
aF0.6260369759557245
aF0.57575781271846582
aF0.45292285895036988
aF0.45292285895036988
aF0.50815815330868674
aF0.59246973899840782
aF0.41213786069907304
aF0.35656910945808451
aF0.59327941337098378
aF0.69757520162278963
aF0.47946531800577497
aF0.43998222383609226
aF0.2998624511651839
aF0.46074833223356626
aF0.58395932184305244
aF0.47255611809836412
aF0.47264489844321222
aF0.5021149024726177
aF0.3752753095370881
aF0.55099502208814799
aF0.55086618375140595
aF0.48304677359965453
aF0.34500503015105316
aF0.66998778169504025
aF0.44581803021501276
aF0.47385135483560326
aF0.57956503046090535
aF0.5443919484614832
aF0.37842657866173057
aF0.49156084044829729
aF0.47477583196824874
aF0.50352751422040865
aF0.52859804382880304
aF0.48093711920838589
aF0.483827940064669
aF0.56559549859552394
aF0.46336998580917865
aF0.60044606434283543
aF0.3637148388303223
aF0.38176700031733618
aF0.60119048337322789
aF0.51323271698988537
aF0.53982239633862084
aF0.50283176694073228
aF0.43857060181648111
aF0.56683041064253981
aF0.47571612501886706
aF0.47560353970920122
aF0.47560353970920122
aF0.69111172003137378
aF0.41111192158629861
aF0.49183217861879031
aF0.33384530315700339
aF0.5381556378517065
aF0.55260629631900837
aF0.49160756192322136
aF0.40414947207304058
aF0.33648149347590645
aF0.33578203524804878
aF0.33628164826794715
aF0.81298541339380404
aF0.50788740673508703
aF0.7023557720042839
aF0.33744562404661355
aF0.36725631706475281
aF0.49099222480017107
aF0.51615302797260698
aF0.5296690555674255
aF0.46039480717618786
aF0.64258481363268316
aF0.57395983024450326
aF0.35458663802676826
aF0.36321231626587819
aF0.42815823126529723
aF0.45321481204239694
aF0.63743513028752163
aF0.45271770212846474
aF0.49580890539090111
aF0.52025594533689601
aF0.54886635888110236
aF0.42691099864642762
aF0.65081341334192422
aF0.47928715624345208
aF0.56972345510912559
aF0.148798210919415
aF0.28676687341914375
aF0.45447623250526187
aF0.66155075598825797
aF0.52303605195874991
aF0.32786958124654519
aF0.52134204054218847
aF0.65754201735368489
aF0.43398445809840758
aF0.7439043507738089
aF0.47413546798364398
aF0.38908705654143749
aF0.26535473866439385
aF0.48642798394602832
aF0.54087211405004831
aF0.6011539262261838
aF0.33084608152444261
aF0.65937949737443402
aF0.39872187097159073
aF0.35143374135671873
aF0.53172725479062288
aF0.50709932366861854
aF0.50839631008736019
aF0.60477998151143519
aF0.34441928196228289
aF0.50331273831603607
aF0.50994011052648558
aF0.50331273831603607
aF0.48302552579947811
aF0.49071445093473776
aF0.35021343793485782
aF0.39624815476437902
aF0.69248629977746923
aF0.43773461440043687
aF0.55534415065433629
aF0.43719348622883003
aF0.55573657184748637
aF0.31003714356277329
aF0.31003714356277329
aF0.798608864135123
aF0.41228366611797934
aF0.35101490843456545
aF0.49096869405593752
aF0.32082356896064862
aF0.72993870503832914
aF0.41980925650738948
aF0.41980925650738948
aF0.64517981551962678
aF0.48089851522695115
aF0.48528860967897075
aF0.48604575263237465
aF0.54083679428219977
aF0.48554099066343875
aF0.44872766107773432
aF0.70998238298157335
aF0.37570256804142504
aF0.39168365093094037
aF0.24452468177786343
aF0.53307345390438399
aF0.41761132442541871
aF0.69400371357474233
aF0.33488743342641564
aF0.43358238877795624
aF0.66894824743483694
aF0.50235939458571832
aF0.38822995403917326
aF0.38926111978576439
aF0.69975342555401532
aF0.45617806483356399
aF0.68728984233153501
aF0.21745500453666489
aF0.34025873600713857
aF0.60379631184752813
aF0.41717537237019053
aF0.46823031592213593
aF0.44615666278614463
aF0.6384898685106758
aF0.57008792546358611
aF0.52286349498505003
aF0.26591228074384776
aF0.57524271555774453
aF0.45513181068895087
aF0.45712337822546673
aF0.45616112758094274
aF0.61303366764217504
aF0.46164854388131665
aF0.60684437535560409
aF0.38338841366905269
aF0.52118504419817557
aF0.2650509660826546
aF0.74429566436895744
aF0.31811774292138933
aF0.52399718607910906
aF0.341664977424324
aF0.52839590680578097
aF0.341664977424324
aF0.69808871361322622
aF0.58250503401670184
aF0.1837085121751437
aF0.66698801894429272
aF0.42669198549347492
aF0.35480895780548277
aF0.64450392667314438
aF0.27610843996062878
aF0.61845729144896744
aF0.48044291025689401
aF0.29250303884344964
aF0.68707633291351078
aF0.45993770774025039
aF0.45657537084373034
aF0.46248166378832989
aF0.60420121948512551
aF0.46107540356342525
aF0.44790251547745225
aF0.48884902540041864
aF0.60181459779884605
aF0.44522933064909881
aF0.37744959326885918
aF0.78891556519214157
aF0.37687300015074926
aF0.30514058611746497
aF0.6812869430823919
aF0.30921684633352098
aF0.37181037825774987
aF0.54953624607375129
aF0.53803625934278843
aF0.46282195055522513
aF0.5654487785704928
aF0.42021483140152782
aF0.40130552245052453
aF0.64044463747948333
aF0.4635369462948048
aF0.46251274943959314
aF0.62561612845278614
aF0.55577818071696361
aF0.23682269720654386
aF0.49358898260243494
aF0.50545759985606598
aF0.50230807877270722
aF0.47586421521512207
aF0.51551184023755725
aF0.57145390550746744
aF0.53882882837810042
aF0.32357290651425452
aF0.52764050428190545
aF0.50553374074614699
aF0.43622807816603615
aF0.561709489495548
aF0.48849068588605155
aF0.6224544219639887
aF0.4781341011156881
aF0.38620860631310416
aF0.48454224412063346
aF0.61339237902110133
aF0.64921577506603101
aF0.31540292554943133
aF0.32060826770235679
aF0.39930438361549891
aF0.14452148469880843
aF0.41377222067797836
aF0.80527144434725428
aF0.39866560406087242
aF0.41204526244789913
aF0.59062861006404954
aF0.56784001515112559
aF0.58530014382664952
aF0.48249061876092952
aF0.48672835874352283
aF0.43326902640165188
aF0.41597052831093012
aF0.41582564247056614
aF0.41592223303080877
aF0.69358939633715011
aF0.42973548327607913
aF0.75643220189012605
aF0.34882220115906587
aF0.34851228147035873
aF0.40945697229704642
aF0.3976107531270438
aF0.40937759311652977
aF0.71180099964048793
aF0.47251610794552984
aF0.49176539408069797
aF0.48061018398863931
aF0.55127958057873905
aF0.71673980523898939
aF0.46549492727640529
aF0.23128214616332984
aF0.46487320113337749
aF0.58565732223047851
aF0.55266453595435105
aF0.50578165393986241
aF0.30943873408809752
aF0.45434081511912844
aF0.42382654538031517
aF0.65914901656169833
aF0.42363670416244542
aF0.41077830946782068
aF0.37729762841448722
aF0.62158426629001828
aF0.55003698054245631
aF0.33357031384840924
aF0.38133658088840161
aF0.30132140539525498
aF0.80778627646552992
aF0.51592839142013303
aF0.55604995569082594
aF0.47510292511902974
aF0.44598604490074145
aF0.2954677066270362
aF0.37359766173426256
aF0.20167376589724514
aF0.85583369508104445
aF0.36827764931818768
aF0.35259446370547426
aF0.385478392973233
aF0.76906119764794589
aF0.46779984988334372
aF0.67623734874291574
aF0.33669061175387316
aF0.45880908945995824
aF0.54409123449625119
aF0.43953127574978468
aF0.42578644655816378
aF0.57400600006400959
aF0.33991023161351891
aF0.47458583673587512
aF0.33991023161351891
aF0.73735361425749935
aF0.49833396004740771
aF0.50674892256109716
aF0.42325032394699175
aF0.56189674943480716
aF0.44096208221664124
aF0.44191669724532817
aF0.3818024675221775
aF0.68153426218857227
aF0.50431898577749457
aF0.57402620866580767
aF0.46031080919743284
aF0.45196264368321692
aF0.42492988734192111
aF0.46753552597600961
aF0.6482898376787195
aF0.42492988734192111
aF0.37349656556338789
aF0.56330053184141493
aF0.53249899364734232
aF0.50954651220874869
aF0.3474100314364762
aF0.66059164074696097
aF0.56779594177140758
aF0.34717822907040835
aF0.47705325922699532
aF0.28014150956185935
aF0.45941949447899189
aF0.69489182652695758
aF0.46201195387740202
aF0.37536355907575025
aF0.30630734185542663
aF0.74284787495006954
aF0.49130494509760542
aF0.49333811236021596
aF0.49213821036916711
aF0.52252936731836552
aF0.39860151004729411
aF0.69012897913375959
aF0.4538233847388527
aF0.39860151004729411
aF0.5551202486512119
aF0.70015904485777503
aF0.3997969321996564
aF0.20440458518587215
aF0.46924947550823048
aF0.38554184732072277
aF0.61503755045091801
aF0.50288291404173746
aF0.43555587354807318
aF0.44762845756304603
aF0.43594311693311011
aF0.6479764222532699
aF0.66853363406454991
aF0.43962912577183116
aF0.43962912577183116
aF0.40806279378379651
aF0.61087254931895285
aF0.30920625489664455
aF0.46529577352538537
aF0.56100451295935927
aF0.65081715890868519
aF0.3889969087494034
aF0.41735149168186997
aF0.50093528828018674
aF0.47931891198419357
aF0.60708072770213461
aF0.41249211916322098
aF0.48120330661288141
aF0.77673499328089601
aF0.43073967072727076
aF0.38403979355908924
aF0.25230838915458365
aF0.34400993116616424
aF0.38065036401415925
aF0.70641513387595445
aF0.48758601935038737
aF0.46419307261975273
aF0.32984807165277547
aF0.64560515546062813
aF0.50884086333689504
aF0.57673207306006646
aF0.40873309242099093
aF0.40939667174072109
aF0.57681170257843428
aF0.47038303859263719
aF0.62629413320377014
aF0.48158550347000351
aF0.39315500577563434
aF0.50209874931767917
aF0.41529143193704893
aF0.41529143193704893
aF0.63479358775351014
aF0.54141659656249697
aF0.63326411112216829
aF-0.074111422723058665
aF0.54804391389130169
aF0.48605606730716538
aF0.52150778716866519
aF0.60010819603880872
aF0.36283505950139555
aF0.58126273163095177
aF0.4660555277091098
aF0.48186224014527673
aF0.4612316808621052
aF0.4738900017833711
aF0.48893153340194229
aF0.54673916831652192
aF0.48728893244515609
aF0.4336817292684384
aF0.43287419293772306
aF0.66025340668777732
aF0.43428738151647495
aF0.53283240723131464
aF0.22005076423672654
aF0.25416455320557874
aF0.77657431508949859
aF0.48107396108778061
aF0.43690423833438119
aF0.43641892489966178
aF0.62227088352114801
aF0.54887991155680338
aF0.2629324759450159
aF0.49172891475763542
aF0.62273592330465188
aF0.57034506236482485
aF0.28012024323855822
aF0.42768574822751898
aF0.64290283863668096
aF0.51867019974381123
aF0.43353451470312415
aF0.3639576789531449
aF0.64075257033419775
aF0.42247228787894481
aF0.42701393105571861
aF0.41440276116307001
aF0.68370068026812392
aF0.56193752704115363
aF0.30483550375514712
aF0.27809412542460071
aF0.71691365502237769
aF0.51547390777545088
aF0.51327902675231796
aF0.51327902675231796
aF0.45538547604759261
aF0.43445537009136198
aF0.59926624831019326
aF0.48912510349330712
aF0.46139476391444362
aF0.54836298239550874
aF0.53504931136114153
aF0.61231700609713424
aF0.1951618763860227
aF0.38048651963688046
aF0.49607406416577493
aF0.49493410650268216
aF0.60347391116522697
aF0.61336598299830092
aF0.56109232432856804
aF0.32393607232619598
aF0.45168904738323096
aF0.60797130796134069
aF0.29107872188456113
aF0.38449765829292298
aF0.63071833422621038
aF0.44743794478428145
aF0.43608094557159433
aF0.43160254124288
aF0.65065500910182095
aF0.5345427883506999
aF0.46332394188957099
aF0.53367511418215485
aF0.46344989459145658
aF0.46153602477588734
aF0.45477780401612927
aF0.45096210061371722
aF0.61383615942562597
aF0.4201508924434802
aF0.41994062866779097
aF0.53962675238161995
aF0.59659539395398731
aF0.19666560237927849
aF0.58711503227662698
aF0.7083964123112545
aF0.33881130845967056
aF0.41963066394598375
aF0.71012245735017332
aF0.41861767071908723
aF0.37999400943295147
aF0.38357823183561746
aF0.65432038820557981
aF0.55810043410870847
aF0.33653599374811566
aF0.47360758125138991
aF0.45588171385193477
aF0.4968417954058077
aF0.56658269678358897
aF0.39513107240473777
aF0.72276182057489791
aF0.39460994669801153
aF0.40714834680560075
aF0.49883537755251556
aF0.59645492071002137
aF0.40838415980935872
aF0.47814973771784669
aF0.59086276467693288
aF0.22321811919866519
aF0.47679144002553242
aF0.61133034220306859
aF0.66604843189460194
aF0.36604932304072918
aF0.50651627293018298
aF0.40722063396773267
aF0.60346150870465776
aF0.22975990589578313
aF0.65598968602137986
aF0.39079678221325026
aF0.75454394528935786
aF0.46227788012482113
aF0.32818035042949023
aF0.33054538836058356
aF0.35266472747221833
aF0.35314154839214795
aF0.35317015764734372
aF0.79132134846943969
aF0.64221163963371231
aF0.47736781347911522
aF0.42675037272828736
aF0.42138853799007803
aF0.49763124621396759
aF0.4976744050155123
aF0.50703986495071207
aF0.49758808741242294
aF0.5280623082904905
aF0.49011733823045434
aF0.4904321993026215
aF0.490317704367288
aF0.58102330293018378
aF0.45377264801276923
aF0.50868865147884124
aF0.44467759244672683
aF0.47181357381268757
aF0.57555471379129119
aF0.47253846998013699
aF0.47205520586850408
aF0.4447057644002646
aF0.52210764110396546
aF0.44480818410785555
aF0.57600874434395621
aF0.45632835133312033
aF0.53015427858796871
aF0.47922690436385257
aF0.53013437051214252
aF0.50122923062780178
aF0.422031796226917
aF0.60841960053012978
aF0.44775440927868176
aF0.20040616092311819
aF0.3571153894338196
aF0.24976592487004878
aF0.87745253550684876
aF0.44834235062927358
aF0.65487448266535042
aF0.41700714456616805
aF0.44298260684453328
aF0.53261132627140928
aF0.5325807977205731
aF0.38607877643429966
aF0.532565533445155
aF0.36211856879335907
aF0.5289258494767598
aF0.43590301785506824
aF0.63174056931242073
aF0.79443419024719875
aF0.42584512388540813
aF0.38869293000289967
aF0.19091373443275358
aF0.52620951124781901
aF0.45627199956528525
aF0.5526421715083607
aF0.45771830087462251
aF0.49113737265575713
aF0.52329226170809673
aF0.4911598118586572
aF0.49367127649093917
aF0.48914625445800769
aF0.48323221202473221
aF0.48854680391916239
aF0.53716346803534387
aF0.42725468789757592
aF0.46554299399878829
aF0.66372670784221088
aF0.40023744165823555
aF0.87237392709039407
aF0.23887147105227083
aF0.23648104965220884
aF0.35493783231095216
aF0.2924387603148158
aF0.43737998103145187
aF0.60902392969452557
aF0.59352184182041534
aF0.44064539188789126
aF0.34923691453578426
aF0.82167704132040775
aF0.093338394567472047
aF0.36306255682215838
aF0.65138218826155925
aF0.45419167491418222
aF0.48743896755182542
aF0.31547429987073528
aF0.78916512730653365
aF0.35749025712817112
aF0.38716286498418967
aF0.40420725806553476
aF0.72023285018188632
aF0.22366395695933258
aF0.51754764843762202
aF0.47686368984417404
aF0.42987005561396396
aF0.4701929538773747
aF0.60558347295704484
aF0.51838043889289864
aF0.52341745991429256
aF0.51837185819551213
aF0.43428849842127698
aF0.59583419358371081
aF0.48244136696665807
aF0.48278142937512808
aF0.42326591245492429
aF0.52476924026339455
aF0.42892861366432933
aF0.4200145390696437
aF0.60351079180366851
aF0.58532472423695725
aF0.41114107610278244
aF0.51041281497784474
aF0.47732247070965406
aF0.43765939608572385
aF0.30070114755974114
aF0.50396950434854559
aF0.68121054862708608
aF0.75602891246092063
aF0.29014459112512653
aF0.51031413175798779
aF0.28950973505580357
aF0.44704728577553637
aF0.32918553682742246
aF0.66801747195318284
aF0.49551817705271517
aF0.56558741933934376
aF0.51029737737620307
aF0.40225410101183456
aF0.50783766692437382
aF0.46675827733131758
aF0.4668958675276465
aF0.59368136923849291
aF0.46009498068052801
aF0.47970058325280118
aF0.63496633762059851
aF0.43545723723146967
aF0.4208112344725865
aF0.62927230965169378
aF0.32811731184721443
aF0.55074728560212716
aF0.43935500153482904
aF0.36344460193013051
aF0.44051326082722259
aF0.73604626871621692
aF0.36344460193013051
aF0.41756761147997945
aF0.60756228207580776
aF0.40657823937567872
aF0.53962903786575001
aF0.52614762077509136
aF0.48315667127842254
aF0.48315667127842254
aF0.5062488944689354
aF0.56393453066733246
aF0.62715323418140356
aF0.38011974640347401
aF0.37969151211342539
aF0.40833948776871926
aF0.40861262279596766
aF0.40833948776871926
aF0.70679095208509846
aF0.51170586455031453
aF0.64698107689557949
aF0.35584845182730218
aF0.43925445206163105
aF0.27408472264225453
aF0.5701991639931292
aF0.59132807443166824
aF0.50008157992930546
aF0.506220552828479
aF0.47555728311340428
aF0.51253549372521401
aF0.50486967629644541
aF0.50319109514684945
aF0.096166100877105976
aF0.6848581932504143
aF0.51818921056385081
aF0.32465739064911475
aF0.45402442094838302
aF0.76798748268438155
aF0.31409334650625775
aF0.36165685122365915
aF0.35034344658439892
aF0.55361356662540273
aF0.66330672410782421
aF0.41841998569339373
aF0.63738480827782473
aF0.28204242745595892
aF0.58233786658926001
aF0.52758547772883968
aF0.2937454291371468
aF0.51537558407432726
aF0.60807499035128187
aF0.55541482069005388
aF0.43089813270741462
aF0.44471820904259729
aF0.55503773811610624
aF0.57046422424966181
aF0.52242591786768366
aF0.39012915520548941
aF0.49944065858717479
aF0.41597687377352677
aF0.68914853263883813
aF0.41884980788150883
aF0.42024085818130863
aF0.59996897410767391
aF0.56769114480779637
aF0.36553106868742774
aF0.42912822330770295
aF0.69647171498547111
aF0.33924889028630661
aF0.52859200549504837
aF0.34702713494974557
aF0.45118499099583714
aF0.61890934740921932
aF0.45194284123428929
aF0.45730842092253077
aF0.43866967941869039
aF0.45354710852443003
aF0.6303863351295087
aF0.45219133250187221
aF0.55085082581275735
aF0.42446663029463116
aF0.46144627913167074
aF0.55087092766206169
aF0.52931277776562757
aF0.29968309377699154
aF0.65040497791074647
aF0.45496306587151414
aF0.11931359554346356
aF0.65981291568798695
aF0.57546555092806995
aF0.46824201211004235
aF0.55736183223935221
aF0.56264453307012441
aF0.56910116741884598
aF-0.22113972644371341
aF0.70890836558023007
aF0.38123194597631094
aF0.57196270876721667
aF0.15801832918098471
aF0.36797156284762483
aF0.15154296226802155
aF0.57826722665332231
aF0.71220690399713515
aF0.49299655577083584
aF0.50228377853786466
aF0.50228377853786466
aF0.50237078700253235
aF0.27893330501859653
aF0.48667767150492303
aF0.77944676967792448
aF0.27893330501859653
aF0.50271067371561728
aF0.49933577123149597
aF0.49909313118361798
aF0.49885049113573998
aF0.50049240907052428
aF0.50085678415013446
aF0.49976365891130381
aF0.4988848719545968
aF0.4120968348592759
aF0.20150434804768336
aF0.414799489195181
aF0.78582032308935723
aF0.51976645037227831
aF0.5205389001896612
aF0.51744910092012952
aF0.43718247724913389
aF0.74941665463303564
aF0.40511371060215851
aF0.40508324506351678
aF0.33191131919473771
aF0.77317289280082246
aF0.29321916394909042
aF0.28687164244399005
aF0.48366399544776095
aF0.49328140483052052
aF0.49995767453392254
aF0.50077834556058665
aF0.50590199440273242
aF0.47281525782565326
aF0.47311560508400308
aF0.46981178524215533
aF0.57609395296326238
aF0.46094514310294132
aF0.47578394514910438
aF0.46396769913482239
aF0.58812684579748775
aF0.42527705881321065
aF0.42527705881321065
aF0.67632704347937689
aF0.42527705881321065
aF0.50134007093946376
aF0.49177553303955257
aF0.49815189163949336
aF0.50858593298485122
aF0.440241035279198
aF0.42273762772112228
aF0.67521235057831486
aF0.41420889728677324
aF0.36322341390402402
aF0.50827248174301709
aF0.50926921296693928
aF0.5919228873922131
aF0.53230567460382017
aF0.41347769407009449
aF0.50639996451137215
aF0.53781589901557392
aF0.57631836264991898
aF0.66804276540324203
aF0.31749641283930302
aF0.34752271335709889
aF0.53801661824333369
aF0.48666830541756301
aF0.48666830541756301
aF0.48666830541756301
aF0.45946156764947182
aF0.60554537696135502
aF0.45946156764947182
aF0.45946156764947182
aF0.44917222010430347
aF0.44882740729990539
aF0.45012045531639805
aF0.62784540362160379
aF0.40811318187851159
aF0.40823107100506645
aF0.57745668452719334
aF0.57735154017107693
aF0.39919961243554802
aF0.72280578741276458
aF0.39882573483190081
aF0.39891038636480208
aF0.33865466904542196
aF0.66809513225412775
aF0.3975745191313958
aF0.52999661426231282
aF0.66099410247044021
aF0.40485431629299568
aF0.46143663690913461
aF0.431573874552452
aF0.45617375013672351
aF0.75797209669395271
aF0.25452056934817785
aF0.39064445484129295
aF0.40289841753834332
aF0.41380330054869591
aF0.70625840684693042
aF0.40943712137291643
aF0.30615208943929229
aF0.43214307228789867
aF0.17165121950622628
aF0.83069797282018021
aF0.60731647378052234
aF0.51475783376717277
aF0.51282038378473449
aF0.32125741582879841
aF0.35995120514816759
aF0.67255319413281756
aF0.50305536217444269
aF0.40625439512904549
aF0.49196542092532719
aF0.46921883669209141
aF0.55646509363103847
aF0.47765082170690953
aF0.60911143424396885
aF0.49127481231358583
aF0.44003974173947452
aF0.44045129713665576
aF0.65006205895002844
aF0.43871677479876658
aF0.43974001576612526
aF0.43769353383140791
aF0.44989486134133783
aF0.41884287652094715
aF0.66000536812526511
aF0.43192380412770731
aF0.46102774754429421
aF0.5776308918786689
aF0.44942395681151098
aF0.50181079680052043
aF0.5
aF0.5
aF0.5
aF0.5
aF0.40612380560460565
aF0.6313145446916949
aF0.35411925249192083
aF0.55776783270148655
aF0.46511256313445126
aF0.45726452871748219
aF0.45696356582860564
aF0.60478405559049386
aF0.59649679281244705
aF0.34169536506178461
aF0.59561074419255633
aF0.41555227717117327
aF0.34810686995557877
aF0.53289457635707738
aF0.55713205242198993
aF0.53333746703471141
aF0.5
aF0.5
aF0.5
aF0.5
aF0.92611505382218473
aF0.30441936465914121
aF0.15068208372951689
aF0.16411784530448584
aF0.50682205435657735
aF0.5318996632589218
aF0.25011040502120668
aF0.63060204467076697
aF0.37986254781461543
aF0.37976891839778909
aF0.7950256968921563
aF0.28180517147118456
aF0.53920486115553223
aF0.42481234237903692
aF0.43419332963832158
aF0.58332559001493078
aF0.38826412625679529
aF0.76584569111620793
aF0.34410296020295045
aF0.37990064285330172
aF0.38546179330106023
aF0.47582065435678078
aF0.38724912665907246
aF0.68924017925132686
aF0.50484960212114915
aF0.4872423131041323
aF0.5036179817367149
aF0.50407413743465346
aF0.56009581472692149
aF0.47854189196299252
aF0.47810632865747982
aF0.47823077531619773
aF0.45363822190064529
aF0.52858652711350995
aF0.45420256282189309
aF0.55543557584199066
aF0.50909179624824619
aF0.41340570175176949
aF0.55712343023457978
aF0.50944553412069149
aF0.53504137181926215
aF0.53899965486858659
aF0.30069254386229433
aF0.57688308742667171
aF0.67476354949416706
aF0.45856803263389295
aF0.40369294574782988
aF0.41405496890359056
aF0.39292808016039626
aF0.39292808016039626
aF0.71891276678339566
aF0.41758769306431126
aF0.52047044810812537
aF0.53667377783577874
aF0.43056463496137987
aF0.50567367338054514
aF0.43558883510957874
aF0.65634373630258758
aF0.43558883510957874
aF0.43558883510957874
aF0.24788011439162974
aF0.79642925907970863
aF0.21163740689622063
aF0.50937755366052639
aF0.081485329118439406
aF0.86706366415475777
aF0.26308613807761716
aF0.41514627228531154
aF0.4332743455130329
aF0.57528316684642611
aF0.48377579408753746
aF0.49727618133022677
aF0.71993391065641132
aF0.34214022919137016
aF0.38179459053824205
aF0.46783343028430424
aF0.48829815175041341
aF0.43581894374828295
aF0.61817674119134658
aF0.43529792087409308
aF0.52139790952774501
aF0.49594942399936137
aF0.52337328653920812
aF0.45635380102717155
aF0.49237196966055879
aF0.49237196966055879
aF0.49237196966055879
aF0.52221598068016362
aF0.69029510594606325
aF0.59565735034015066
aF0.29041779189011852
aF0.29041779189011852
aF0.49010427411270657
aF0.51109661291172903
aF0.55792703187493542
aF0.43277647795350427
aF0.19881726883474055
aF0.78541110620765697
aF0.43040109385827879
aF0.39793967666513974
aF0.51413064304778355
aF0.46801272511323555
aF0.43786899168585541
aF0.57000396238216433
aF0.58808798451070876
aF0.51849998102217731
aF0.40323545441295833
aF0.47192315100926047
aF0.43871866121160547
aF0.56714305710212298
aF0.46951458337029534
aF0.51519971378890794
aF0.5275355765803319
aF0.5004672814919463
aF0.46285210227539009
aF0.50695823005191443
aF0.11676188104882271
aF0.67207939763853941
aF0.67166224615444536
aF0.28904285753936854
aF0.45410464247127263
aF0.41497674754264308
aF0.39480930732345632
aF0.68242866552903503
aF0.28082014145951728
aF0.52621953540299982
aF0.34707895605040712
aF0.72371903870070153
aF0.62160595555140441
aF0.50949981952004109
aF0.43037214869649321
aF0.41084764032233956
aF0.63123615330163596
aF0.30168439838800409
aF0.65706494518523595
aF0.28070108717805925
aF0.54989226747858422
aF0.36420079511227071
aF0.63279540875959517
aF0.40564300272484405
aF0.40264045403421794
aF0.44623859375556557
aF0.40437392974914788
aF0.68937182068706959
aF0.35934183402900582
aF0.48952694395666635
aF0.70859739187622461
aF0.35934183402900582
aF0.57812374825516621
aF0.5393363923410186
aF0.43294871959619657
aF0.43294871959619657
aF0.64270072067636286
aF0.6451417955382559
aF0.29887321728847666
aF0.28531149167075953
aF0.5650389037154594
aF0.54280204129515208
aF0.43465443701496914
aF0.44404110354453452
aF0.44074470923918346
aF0.56396640280780386
aF0.55061050220350582
aF0.42955101285516334
aF0.48397343877625937
aF0.48397343877625937
aF0.54526060895433037
aF0.48397343877625937
aF0.44160668110154994
aF0.44155280766881388
aF0.55052445378042114
aF0.5540193886824093
aF0.62882986490138504
aF0.32509151666078773
aF0.50925367136065214
aF0.48943764159389241
aF0.3026700560940801
aF0.53769842815160218
aF0.67728671517827799
aF0.40069183040127104
aF0.52473261578723562
aF0.42228555784594568
aF0.63648940158139267
aF0.3757816270633576
aF0.4731254840390765
aF0.67037084304978711
aF0.35764273090720361
aF0.44592251139715366
aF0.56306265157055768
aF0.50507665032247362
aF0.43121217397592398
aF0.49184762754365302
aF0.50228477832416274
aF0.45561626469284905
aF0.51715061203121759
aF0.52218681071712214
aF0.68685202495095243
aF0.49032368984730934
aF0.01505390298684172
aF0.53627451459132269
aF0.45975723785698397
aF0.65837520039520325
aF0.45991887039560625
aF0.37899869445252965
aF0.58352746710122994
aF0.68731718196631619
aF0.42814465664163404
aF0.061505605447976432
aF0.57051345709493695
aF0.55419350780254595
aF0.38670503459273603
aF0.46673672172191855
aF0.46686326872636169
aF0.4435425237957174
aF0.46616903697659445
aF0.60662603543153071
aF0.55790767255772822
aF0.43220937749242799
aF0.56132446291525118
aF0.43226025753211622
aF0.57563948889470096
aF0.40342354504138284
aF0.46809414906559815
aF0.53551516294297818
aF0.29348821620454563
aF0.37542388576865143
aF0.45458681408980295
aF0.75251073175013472
aF0.53040973016391846
aF0.46711264597609581
aF0.52700427932833427
aF0.47195103950121026
aF0.63398354232933485
aF0.41141838407955134
aF0.43873593240046177
aF0.48611784879555364
aF0.25725541171305405
aF0.27072041851180839
aF0.88725756578409787
aF0.27074733628240127
aF0.45714292682777474
aF0.55989211961547425
aF0.45655490443924418
aF0.51874731621117809
aF0.29932969040316487
aF0.63552598809467631
aF0.50152321042126791
aF0.50495833918074418
aF0.33739098185767613
aF0.71879031189150344
aF0.34521358211830161
aF0.50033528319825593
aF0.35704898204292901
aF0.39852937852233344
aF0.38992379261929427
aF0.74943298221128252
aF0.41557209059993444
aF0.59400405409192703
aF0.48090592081745875
aF0.49314147722480911
aF0.50478735438182887
aF0.33261206462221315
aF0.59029373486221415
aF0.53489461383188441
aF0.46101740434637817
aF0.46265916612427349
aF0.47142233613355911
aF0.59259634650012616
aF0.4090383638863736
aF0.78627242811318843
aF0.38535180764521876
aF0.2568409430030808
aF0.40058432612821249
aF0.6290646337267195
aF0.42885127435388387
aF0.50980042049779062
aF0.4527990917328627
aF0.55031829859870973
aF0.49024840629740302
aF0.50177609835082049
aF0.40445248180914906
aF0.68317456280275368
aF0.42510744709688042
aF0.43471181847341062
aF0.53125972627488449
aF0.4415350725660227
aF0.44795939001540203
aF0.56757578157412669
aF0.50239739942910155
aF0.50235583855798405
aF0.49839976313848755
aF0.49682304759046758
aF0.5905835890437946
aF0.45097440587081555
aF0.41514653816719482
aF0.5248680419395042
aF0.62575594270443746
aF0.40889471891041507
aF0.41144857479014374
aF0.52148315343874052
aF0.49325642672370063
aF0.52346130850037098
aF0.49126691115871307
aF0.49126691115871307
aF0.30340291024503896
aF0.30340291024503896
aF0.85078788317918741
aF0.30340291024503896
aF0.5242703377679776
aF0.5242703377679776
aF0.45709976843519501
aF0.49126472249673336
aF0.73522857409852271
aF0.41368355217219588
aF0.38108801964066297
aF0.37825491903953429
aF0.34171230903400351
aF0.28387204684614659
aF0.28649509107808752
aF0.84886390055307881
aF0.52783623840227689
aF0.52608513574370852
aF0.52780604697712918
aF0.4074851066643233
aF0.39042336243627684
aF0.4130732703543184
aF0.6003613802094373
aF0.56258891256028098
aF0.68440690627529832
aF0.4251547161867385
aF0.44266143587720747
aF0.3935498788387285
aF0.28049004693685509
aF0.67683759429728052
aF0.63423689978073183
aF0.24690030269677002
aF0.3762639802847117
aF0.46208656450797825
aF0.37219653752835147
aF0.71159761206276306
aF0.43942734231229652
aF0.37732596661160778
aF0.33649335948369752
aF0.74249642744752831
aF0.31009284414946636
aF0.72408863671209145
aF0.36008023872964701
aF0.49988028153560926
aF0.47536933994415959
aF0.47668543181317574
aF0.38256438279198085
aF0.63280287827816595
aF0.59434636212438863
aF0.21830626760305799
aF0.27443175812244885
aF0.72372783937648044
aF0.38980713443616782
aF0.55063755515657642
aF0.64730505247534365
aF0.35474617663019897
aF0.43988558925247101
aF0.53264456356828394
aF0.60290825085744437
aF0.39911411691040916
aF0.36159116849508782
aF0.56679918238032811
aF0.39375636288675292
aF0.62685440128114633
a.