(lp1
F0.5
aF0.5
aF0.5
aF0.5
aF0.5
aF0.5
aF0.5
aF0.5
aF0.5
aF0.5
aF0.5
aF0.5
aF0.46297627737040026
aF0.46297627737040026
aF0.59746037506828731
aF0.46297627737040031
aF0.49360352147295006
aF0.51871638760358152
aF0.49360352147295006
aF0.49360352147295006
aF0.83339416193600646
aF0.27558874471418232
aF0.39999063214251657
aF0.26365224982175456
aF0.71775007759474763
aF0.19243658622826909
aF0.19243658622826909
aF0.64091430525020543
aF0.53713308710174723
aF0.29984814071000909
aF0.7342581019198624
aF0.28713094402787481
aF0.7270629169451378
aF0.41340036514779765
aF0.38760741103353707
aF0.38760824012238676
aF0.4583682194973086
aF0.4583682194973086
aF0.60802608995387786
aF0.4583682194973086
aF0.33826145393100621
aF0.75371353036636413
aF0.33826145393100621
aF0.45063765012661289
aF0.5
aF0.5
aF0.5
aF0.5
aF0.43703718460574054
aF0.37587060444871934
aF0.43537753466243001
aF0.69149561842032448
aF0.53918966104634236
aF0.56784785966029971
aF0.4327818798073596
aF0.44668015649943016
aF0.52358734119800643
aF0.47548627981459779
aF0.52358734119800643
aF0.47500041050769476
aF0.47053646882311573
aF0.47053646882311573
aF0.47053646882311573
aF0.57947070203973139
aF0.53432805218029145
aF0.56310161779020018
aF0.44527337681690954
aF0.44625297824590665
aF0.52119924351289126
aF0.47786122311984047
aF0.47786122311984036
aF0.52119924351289126
aF0.34177077902630376
aF0.7292895311363885
aF0.3623913951337645
aF0.4690436985096631
aF0.40412710298589805
aF0.61463530866637428
aF0.39309714320149147
aF0.55170586183186632
aF0.48452275922405547
aF0.48452275922405547
aF0.48452275922405547
aF0.54379507848244069
aF0.52880952348991628
aF0.52880952348991628
aF0.52895150043756922
aF0.40116241837637229
aF0.65833387407058719
aF0.43458658909021891
aF0.43458658909021891
aF0.43458658909021891
aF0.49260703712111609
aF0.42070019610092335
aF0.3714195599636238
aF0.66512943285937076
aF0.5
aF0.5
aF0.5
aF0.5
aF0.52251878000078877
aF0.52251878000078877
aF0.52251878000078877
aF0.42534970746370776
aF0.54402049604248237
aF0.54402049604248237
aF0.45170975181602124
aF0.45170975181602124
aF0.54908906703933269
aF0.54908906703933269
aF0.44553473092215279
aF0.44553473092215279
aF0.50355038252284023
aF0.63984838960441703
aF0.40605117234187826
aF0.41491384168465834
aF0.57537009217173729
aF0.47221084875095298
aF0.47221084875095298
aF0.47221084875095298
aF0.5
aF0.5
aF0.5
aF0.5
aF0.50000000000000011
aF0.5
aF0.5
aF0.5
aF0.49983863079075713
aF0.49797913513423953
aF0.49797913513423953
aF0.50417745398929792
aF0.5
aF0.5
aF0.5
aF0.5
aF0.55227317025112643
aF0.50672018641732497
aF0.41160753841676218
aF0.51846719512082473
aF0.55958782692533804
aF0.54268892257982593
aF0.44291658202540002
aF0.44291658202540002
aF0.45273830380033447
aF0.45273830380033447
aF0.46834996944862173
aF0.6088549602832084
aF0.6000134152440203
aF0.46182833999379119
aF0.46196652506904146
aF0.46182833999379119
aF0.46556673255572822
aF0.47721337769551847
aF0.46556673255572822
aF0.58203318395363035
aF0.43131867934266088
aF0.46266668580103598
aF0.56336113633589679
aF0.53153359702498149
aF0.45995082784828173
aF0.45473815861079875
aF0.59244569715854056
aF0.48027756452209103
aF0.51790660536686917
aF0.46889715988565223
aF0.47440383915320461
aF0.53558304581571237
aF0.49003632543105952
aF0.50511485849667348
aF0.49797235787348459
aF0.50670199356015211
aF0.61662435246087932
aF0.63751022251414591
aF0.36908653837503025
aF0.27772333595235127
aF0.47743237850169873
aF0.56118344842692325
aF0.5209501107090766
aF0.43097847199376249
aF0.41778026404530644
aF0.41778026404530644
aF0.59768565812274888
aF0.54193279659275528
aF0.33880416882692804
aF0.61678425123739689
aF0.56590248500172713
aF0.42958503242069346
aF0.68783655930705512
aF0.50584620735714991
aF0.35689648690450476
aF0.37897939233979716
aF0.49186688976458409
aF0.49186688976458409
aF0.49186688976458409
aF0.52364194661996233
aF0.37777720454144365
aF0.29319885494310693
aF0.70069268597667234
aF0.5294795321895831
aF0.46682532190538489
aF0.45767020986089491
aF0.46911537307647622
aF0.59375320174053525
aF0.5
aF0.5
aF0.5
aF0.5
aF0.50616915891818026
aF0.49764226212213547
aF0.49849487505890139
aF0.49764226212213547
aF0.48765938030076578
aF0.51278078579288766
aF0.49962195434463341
aF0.49962195434463341
aF0.3351238170490009
aF0.43321788956225032
aF0.71596783522515062
aF0.4329022364607848
aF0.49651595995018744
aF0.49651653915092048
aF0.56087153260331635
aF0.43859588664229782
aF0.59686309262154258
aF0.46323300424525315
aF0.46323300424525315
aF0.46323300424525315
aF0.5
aF0.5
aF0.5
aF0.5
aF0.55512039149341175
aF0.43223654166487813
aF0.52981474527587058
aF0.47361298407671631
aF0.46695252343501276
aF0.4867694557299948
aF0.57180956505087632
aF0.46695252343501276
aF0.5737851605137414
aF0.4728532505172614
aF0.4728532505172614
aF0.4728532505172614
aF0.46652953982216133
aF0.46652953982216133
aF0.46652953982216133
aF0.58910997735564374
aF0.49997203839111393
aF0.49997203839111398
aF0.50008387544601318
aF0.49997203839111393
aF0.62606763985404634
aF0.50928567265443736
aF0.41753288131385635
aF0.41753288131385635
aF0.47439347492413592
aF0.47439347492413592
aF0.47439347492413592
aF0.56995832553635872
aF0.44649112513845773
aF0.44649112513845768
aF0.44649112513845768
aF0.63398503572070408
aF0.46620057618202565
aF0.43806439835726768
aF0.54348716896511573
aF0.54348716896511573
aF0.50000000000000011
aF0.5
aF0.5
aF0.5
aF0.49997444549299735
aF0.49997444549299735
aF0.50007665568581516
aF0.49997444549299735
aF0.7090958345927576
aF0.4792887266981391
aF0.40128403253248207
aF0.32624613263262892
aF0.50755117105729408
aF0.49745747180315808
aF0.49745747180315808
aF0.49745747180315808
aF0.45450649244142782
aF0.51915188847137295
aF0.44853666179821933
aF0.56808452544327159
aF0.49225291684206168
aF0.48484642194925642
aF0.48518274748241752
aF0.53591857080054484
aF0.5
aF0.5
aF0.5
aF0.5
aF0.4925165802420432
aF0.49242340822860386
aF0.52189464779962225
aF0.4925165802420432
aF0.60881874329451524
aF0.37171281517633481
aF0.47747239399404418
aF0.51301991561787075
aF0.51013492809955163
aF0.51833379015724357
aF0.45918927714718799
aF0.51013492809955163
aF0.50007031195041751
aF0.49997656048585992
aF0.49997656048585992
aF0.49997656048585992
aF0.5014326755936771
aF0.50682010590185778
aF0.49556517723823296
aF0.49609858617963698
aF0.47659097730219524
aF0.52963765629269433
aF0.51498158583104581
aF0.47659097730219524
aF0.5682527622537743
aF0.37243735430137559
aF0.63266889796754355
aF0.3716305704008766
aF0.61654381300396688
aF0.60984543477768194
aF0.33550994623050273
aF0.36796106901104997
aF0.59555905173273116
aF0.40753459635299338
aF0.42496042007442475
aF0.54647379630205639
aF0.47242827048591779
aF0.55575320420465446
aF0.39885872345757206
aF0.55575320420465446
aF0.5
aF0.5
aF0.5
aF0.5
aF0.45892481620865405
aF0.39687266924236347
aF0.66077883704602225
aF0.44187263548267047
aF0.54064526054359952
aF0.48228508805794634
aF0.49287278116793792
aF0.48185082512377653
aF0.51988776627134348
aF0.49296971393907629
aF0.4929697139390764
aF0.49363795717007375
aF0.51338803942685052
aF0.51338803942685052
aF0.42262731630287315
aF0.54244962297114785
aF0.53992225974792984
aF0.46332442725990108
aF0.46332442725990108
aF0.52834165427047131
aF0.60604909841812882
aF0.45924012974571132
aF0.45924012974571138
aF0.45924012974571138
aF0.45834919346286501
aF0.53644224916495342
aF0.46307317617083027
aF0.5363850889741868
aF0.56722168294034103
aF0.45839196194188919
aF0.44151892119221137
aF0.52268289991031724
aF0.58953362448718372
aF0.42216491240809179
aF0.54406220146407969
aF0.42216491240809179
aF0.5
aF0.5
aF0.5
aF0.5
aF0.59528881499147313
aF0.40375600744083351
aF0.52156254720324058
aF0.45889521958324275
aF0.44133496735481481
aF0.55327075512501656
aF0.44133496735481481
aF0.55166870919351851
aF0.6009325473634155
aF0.42091449950710752
aF0.42125337600517515
aF0.53315724774989248
aF0.4663677547214114
aF0.46896617138853469
aF0.46613828129029017
aF0.58761122365474194
aF0.58194430786380447
aF0.46466463098972288
aF0.52669357187108168
aF0.40990423833108114
aF0.48461472971862329
aF0.54354916173170309
aF0.48461472971862329
aF0.48461472971862329
aF0.47952810507824634
aF0.55691865592759526
aF0.47952810507824634
aF0.47952810507824634
aF0.53270122363984551
aF0.46500473796791697
aF0.53270122363984573
aF0.46500473796791697
aF0.48261236016734765
aF0.48261236016734765
aF0.54886786154875833
aF0.48261236016734765
aF0.50188344504013216
aF0.49937060639523984
aF0.49937060639523984
aF0.49937060639523984
aF0.79015025215192314
aF0.28978472375330655
aF0.4184705257530883
aF0.34142321534922848
aF0.52356592499411758
aF0.45868330066639318
aF0.49129123140952879
aF0.52356592499411747
aF0.45904943579112345
aF0.44986515910424707
aF0.54170792597301087
aF0.54170792597301076
aF0.47998904519774221
aF0.47929508401658555
aF0.5563247751249748
aF0.47998904519774221
aF0.5
aF0.5
aF0.5
aF0.5
aF0.46722009744142556
aF0.46722009744142556
aF0.58746586423423308
aF0.46722009744142556
aF0.52960776731953252
aF0.46817705336654825
aF0.46817705336654819
aF0.53022269490927321
aF0.56144883987820449
aF0.44454588474645074
aF0.43598821556183071
aF0.54503984482386603
aF0.4629047836892618
aF0.48266432891773253
aF0.59434846905651739
aF0.4466589349360055
aF0.5322239663012216
aF0.45043991850465903
aF0.542713695913148
aF0.46829838114219785
aF0.55196663835283288
aF0.47604599145430565
aF0.47604599145430565
aF0.49202973303048186
aF0.3900434892436041
aF0.39751258050100424
aF0.43276125237948077
aF0.70891996958828196
aF0.48061917728411563
aF0.55408990180314555
aF0.48061917728411563
aF0.48061917728411563
aF0.5
aF0.5
aF0.5
aF0.5
aF0.5
aF0.5
aF0.5
aF0.5
aF0.46054311277325338
aF0.47966191050290979
aF0.52160600521454115
aF0.53455745080762762
aF0.58018637092087477
aF0.4702424108895556
aF0.4702424108895556
aF0.4702424108895556
aF0.36879539102423731
aF0.40918248092673526
aF0.71052958641458053
aF0.43784399469610968
aF0.5
aF0.5
aF0.5
aF0.5
aF0.48612838631766053
aF0.54377603620272286
aF0.48083528391912295
aF0.48660481317621468
aF0.48289900741802794
aF0.48348022437570071
aF0.47644110580132681
aF0.55322625929642422
aF0.49069378884244064
aF0.48569399433045096
aF0.48615162400195217
aF0.53570285414868457
aF0.54185275100048436
aF0.45081190509276597
aF0.51061106558021552
aF0.4923825364154123
aF0.497112744832926
aF0.50795788938368824
aF0.49693348624531003
aF0.49791044554781666
aF0.5
aF0.5
aF0.5
aF0.5
aF0.45450956542882393
aF0.51427005063283682
aF0.51427005063283671
aF0.51427005063283671
aF0.35376205923774423
aF0.37156580816828222
aF0.7819245016481785
aF0.3540979092939826
aF0.46882335270648617
aF0.46882335270648617
aF0.46882500800713067
aF0.58362011598403063
aF0.39519072892039053
aF0.72902185380557083
aF0.39519072892039053
aF0.39519072892039053
aF0.5
aF0.5
aF0.5
aF0.5
aF0.47380904290352666
aF0.46060925455011087
aF0.59260713808426768
aF0.46060925455011087
aF0.49134138512204606
aF0.49134138512204606
aF0.49134138512204606
aF0.52511991944607028
aF0.5
aF0.5
aF0.5
aF0.5
aF0.51241602644644046
aF0.45302980007686727
aF0.5718022528160136
aF0.45302980007686727
aF0.47098175510642126
aF0.53443667234863568
aF0.45489771646390059
aF0.53443586814670352
aF0.60308375761155264
aF0.38612756711933599
aF0.5801712730063443
aF0.38806800588792517
aF0.5
aF0.5
aF0.5
aF0.5
aF0.48569897086856101
aF0.47702542298131984
aF0.55586869075007839
aF0.47702542298131984
aF0.45197418857862548
aF0.53463480713168954
aF0.5886117105034655
aF0.40425389314159815
aF0.43520635135957375
aF0.43520635135957375
aF0.55731089325105354
aF0.55731089325105365
aF0.29211869135052781
aF0.29311385430551301
aF0.64838966085367988
aF0.63901626448461524
aF0.44118067779144715
aF0.59816124845454077
aF0.49788213086450123
aF0.44685133339468563
aF0.40818374598114648
aF0.65827698172546811
aF0.48290253651664383
aF0.40848817005269311
aF0.41488151433064097
aF0.48261416525983858
aF0.6016979840815595
aF0.48261416525983858
aF0.54310562408046548
aF0.40874447211264198
aF0.61008006128039272
aF0.40714439261475555
aF0.43660991416225481
aF0.48078633044763464
aF0.58908296962212825
aF0.48083005543653473
aF0.45779452936746889
aF0.43749640433933745
aF0.44498402085273581
aF0.63325372976169725
aF0.52380293585422222
aF0.52235931623399956
aF0.47579997327345769
aF0.47579997327345769
aF0.41167688861342622
aF0.41167688861342622
aF0.5960117497000762
aF0.5530047675948111
aF0.52516505017320958
aF0.47375550630193858
aF0.5247028783738068
aF0.47375550630193858
aF0.55641233453993699
aF0.55520761298796839
aF0.43712116195170636
aF0.43712116195170636
aF0.47284758395821858
aF0.47294826887551705
aF0.57363318617403825
aF0.47294826887551694
aF0.39912391400395936
aF0.39912391400395936
aF0.50709879256336887
aF0.65134554356431529
aF0.46785351547452342
aF0.5848168943431542
aF0.46785351547452342
aF0.46927111162641127
aF0.37528195483914345
aF0.54747204332728516
aF0.52888458861416932
aF0.52888458861416932
aF0.51078610536609848
aF0.59485120110841794
aF0.4489394774842364
aF0.42860581967699224
aF0.5
aF0.5
aF0.5
aF0.5
aF0.46161579167699279
aF0.46161579167699279
aF0.60061017525785354
aF0.46161579167699268
aF0.49786114058747982
aF0.50614072032729474
aF0.49808565892096485
aF0.49786196108637293
aF0.57281874135999722
aF0.47340070998365069
aF0.47345250198994687
aF0.47287755888092547
aF0.45046073768256062
aF0.49607400656042316
aF0.58929714431397195
aF0.45135859305542203
aF0.51348154937268087
aF0.46878130681989755
aF0.54481636466454397
aF0.46878130681989755
aF0.45009157185764298
aF0.4808480413560865
aF0.57892828254475504
aF0.48067117839174822
aF0.29958713874416892
aF0.30689391023441381
aF0.77186696164377711
aF0.46934536077702693
aF0.48377176648311077
aF0.54583103412030543
aF0.48373364375323236
aF0.48377176648311077
aF0.48593853495786898
aF0.48840792130436217
aF0.48593853495786904
aF0.53775940986016391
aF0.4999548261464668
aF0.41656571800181375
aF0.63527013619933403
aF0.4158726108458804
aF0.44705076641634078
aF0.51644477350650719
aF0.51644477350650719
aF0.51644477350650719
aF0.54516787977457448
aF0.4840082584908702
aF0.4840082584908702
aF0.4840082584908702
aF0.48526497360306536
aF0.48526497360306536
aF0.48526497360306536
aF0.54180597651008677
aF0.52928316366382977
aF0.42411289315048811
aF0.42411289315048811
aF0.60009652589317064
aF0.5
aF0.5
aF0.5
aF0.5
aF0.59573022716616053
aF0.3420396675756901
aF0.55188706932987297
aF0.47279490791647727
aF0.48106139036431317
aF0.55293744320877924
aF0.48106139036431317
aF0.48106139036431317
aF0.55762262217460967
aF0.43488476732018788
aF0.55750111169830374
aF0.43488476732018788
aF0.48597761500192743
aF0.48597761500192743
aF0.48597761500192743
aF0.53988635206968805
aF0.50010542660559054
aF0.49901231355641862
aF0.4991057042833541
aF0.5017716304759845
aF0.5
aF0.5
aF0.5
aF0.5
aF0.59452895531247363
aF0.46420655934537403
aF0.46428424678909591
aF0.46420655934537403
aF0.58242247999671992
aF0.44397673079795741
aF0.44967600567983451
aF0.51133179758377811
aF0.82191130648081245
aF0.33275338764521462
aF0.3209550907841644
aF0.33275338764521462
aF0.36707219795098595
aF0.81574139452096728
aF0.3157635461712443
aF0.31641327669012281
aF0.44592013506002709
aF0.51379062718380986
aF0.58166111930759279
aF0.44592013506002709
aF0.52537313162186838
aF0.42628638955121284
aF0.47555876253512902
aF0.56223380370561093
aF0.50495922584573116
aF0.47984198493638724
aF0.56632364928317347
aF0.44050581606623185
aF0.46766181924130679
aF0.50667423933000921
aF0.50667423933000921
aF0.51754695750494417
aF0.5
aF0.5
aF0.5
aF0.5
aF0.5
aF0.5
aF0.5
aF0.5
aF0.41642745886242755
aF0.6142432609453442
aF0.51704654048805931
aF0.426563316352849
aF0.5
aF0.5
aF0.5
aF0.5
aF0.48442318380890553
aF0.48442318380890542
aF0.54406115186192994
aF0.48442318380890542
aF0.35149460709945873
aF0.35149460709945873
aF0.35149460709945873
aF0.7933187401921068
aF0.49847689169587583
aF0.48347977499368611
aF0.60425743330279313
aF0.39069303796662813
aF0.4560102771665428
aF0.4560102771665428
aF0.48737431740109249
aF0.58870665783121945
aF0.71651300293916831
aF0.41129753177166678
aF0.39406832086748944
aF0.40268302108023818
aF0.50551948971374394
aF0.31992991810035704
aF0.49670455634063709
aF0.62879207750599531
aF0.18581839611341405
aF0.82491311609640483
aF0.4887524915919304
aF0.21473443254549929
aF0.44973902084275724
aF0.6270601561207616
aF0.44973902084275724
aF0.44973902084275724
aF0.28238792459903
aF0.32967043255301698
aF0.39723158727004898
aF0.80856758036411325
aF0.49999999999999972
aF0.50000000000000011
aF0.50000000000000011
aF0.50000000000000011
aF0.50000000000000011
aF0.5
aF0.5
aF0.5
aF0.5
aF0.49999999999999989
aF0.5
aF0.49999999999999989
aF0.54098787431990547
aF0.4855691230706603
aF0.4855691230706603
aF0.4855691230706603
aF0.46335542926859269
aF0.61464406449342734
aF0.44324332339350681
aF0.45940154159231661
aF0.5
aF0.5
aF0.5
aF0.5
aF0.2600312737725935
aF0.2600312737725935
aF0.69267226089567213
aF0.62046161227434771
aF0.5
aF0.5
aF0.5
aF0.5
aF0.39860025283971368
aF0.52795113376081115
aF0.52795530622181808
aF0.5325867379394803
aF0.46299356022843335
aF0.59742019513990319
aF0.46299356022843335
aF0.46299356022843335
aF0.51841355058621419
aF0.44599469472160902
aF0.51604627946451442
aF0.51578324933988107
aF0.53620668571855867
aF0.50363040902131073
aF0.54425924849765339
aF0.40326253449150917
aF0.5
aF0.50000000000000011
aF0.5
aF0.5
aF0.46956730191168689
aF0.52868378921183035
aF0.5286837892118299
aF0.46956730191168689
aF0.42158373874153032
aF0.42158373874153032
aF0.56768578564969641
aF0.56768578564969652
aF0.5
aF0.5
aF0.5
aF0.5
aF0.51675383772887273
aF0.49428921061543241
aF0.49428921061543241
aF0.49428921061543241
aF0.48122967867049682
aF0.40770894181747513
aF0.69745044255567812
aF0.34022682920024683
aF0.42314793425939423
aF0.30797739330378937
aF0.36100227980610744
aF0.77186339783708058
aF0.43356682331635293
aF0.65759449287232985
aF0.43356682331635293
aF0.43773176990334622
aF0.46621643825207498
aF0.52746680873116991
aF0.45995501373953601
aF0.54116761149053261
aF0.51088957649221334
aF0.43250608352850461
aF0.58927306945592217
aF0.45242411292551266
aF0.49764051126789072
aF0.5070125882412555
aF0.49764051126789072
aF0.49764051126789072
aF0.24664904847374985
aF0.4375688944163037
aF0.32595742418878193
aF0.80090540461561488
aF0.45583457999900334
aF0.50404796169714194
aF0.35948304602864867
aF0.63947042746639449
aF0.34469098573839346
aF0.65000022371937438
aF0.34407556466866557
aF0.58335224291451626
aF0.5
aF0.5
aF0.5
aF0.5
aF0.83504101658918328
aF0.37058808856836228
aF0.28755083830946393
aF0.28755083830946393
aF0.51524276667488267
aF0.43811830907041449
aF0.40620148425549779
aF0.61447342728154142
aF0.65522313371875485
aF0.43629677080438573
aF0.4360778444414713
aF0.4360778444414713
aF0.5
aF0.5
aF0.5
aF0.5
aF0.66788299720698063
aF0.42961933999485197
aF0.42964089516552678
aF0.42984674704547099
aF0.40943044182004551
aF0.70057014218544378
aF0.42501256566698042
aF0.40116394181740722
aF0.54424716759918845
aF0.3572817005041472
aF0.45432080326548391
aF0.60806037098739729
aF0.48278522974851473
aF0.48278522974851473
aF0.54841158431420967
aF0.48278522974851473
aF0.57587842585009419
aF0.47200425091320852
aF0.47200425091320852
aF0.47200425091320852
aF0.5
aF0.5
aF0.5
aF0.5
aF0.44103808746824863
aF0.52087861090268761
aF0.58280038049814753
aF0.44103808746824863
aF0.45973316557080762
aF0.5731733548498904
aF0.47964451511737632
aF0.47964451511737632
aF0.49488001954012811
aF0.51505465610931755
aF0.49488001954012811
aF0.49488001954012811
aF0.48383057373961919
aF0.48384169703588265
aF0.54562604613166543
aF0.483836135387751
aF0.41084156509462161
aF0.41979338078847334
aF0.57222425324747561
aF0.57231296493453165
aF0.5
aF0.5
aF0.5
aF0.5
aF0.47191573153790206
aF0.51895135708028761
aF0.50397670150095952
aF0.50397670150095952
aF0.49798879486416026
aF0.56283557437565579
aF0.43270132493061342
aF0.49798879486416026
aF0.49964972927491985
aF0.49964972927491985
aF0.49964972927491985
aF0.50104934298579618
aF0.39931054941872274
aF0.26851772267456786
aF0.28791846243221392
aF0.8279808432103074
aF0.46808555864496798
aF0.43975479752723579
aF0.57970872822252928
aF0.50144732351706267
aF0.5
aF0.5
aF0.5
aF0.5
aF0.43869085786985879
aF0.41823038048937078
aF0.35348182944810957
aF0.71251966731251781
aF0.49788553944143388
aF0.50629039971674084
aF0.49788553944143388
aF0.49788553944143388
aF0.44525637566844051
aF0.60862083998820382
aF0.43964130699939297
aF0.48789645852221886
aF0.37982850937641011
aF0.37072856235588797
aF0.45352988210036943
aF0.71596178847788783
aF0.70778072781240231
aF0.44568896637710237
aF0.31912683790954965
aF0.44560727991462196
aF0.49845700225565714
aF0.44151063155812337
aF0.49833709841059842
aF0.5552198802917242
aF0.62487723893561764
aF0.46234462784187563
aF0.44484987788686842
aF0.44483083021525727
aF0.6375643816551847
aF0.41915996654131821
aF0.45706486503215443
aF0.45706486503215443
aF0.5
aF0.5
aF0.5
aF0.5
aF0.50154030777421554
aF0.45423955075280475
aF0.45423955075280475
aF0.57947405527903084
aF0.36383982973792145
aF0.34446875863705589
aF0.75495101703046552
aF0.42309669639928849
aF0.45362113965332762
aF0.45429500688516866
aF0.61811954348526876
aF0.45362113965332762
aF0.47756370986087571
aF0.47839443908339091
aF0.47839352629444182
aF0.56054553577526101
aF0.46549406105204061
aF0.46502302912038157
aF0.53247951205327315
aF0.53247951205327315
aF0.5
aF0.5
aF0.5
aF0.5
aF0.49999720013024174
aF0.4999972002320533
aF0.50000839941339581
aF0.49999720013024174
aF0.42167037763737952
aF0.67242766839928081
aF0.43843952378567125
aF0.42167037763737952
aF0.43213981211736696
aF0.43213981211736702
aF0.63988500449543273
aF0.46589435131606149
aF0.49977116599899285
aF0.49966955463558521
aF0.49977116599899285
aF0.50078727963306957
aF0.44640827576656067
aF0.47149968821990768
aF0.44640827576656067
aF0.61573317814032291
aF0.51602846569550442
aF0.51602846569550442
aF0.4429562009862904
aF0.52078695182548551
aF0.42422639109651067
aF0.62264018661326381
aF0.50876668833451177
aF0.41654246356471769
aF0.5
aF0.5
aF0.5
aF0.5
aF0.5
aF0.5
aF0.5
aF0.5
aF0.46784765313953053
aF0.45671681997098901
aF0.45670579934408939
aF0.60328113898322511
aF0.5
aF0.5
aF0.5
aF0.5
aF0.48838076369294242
aF0.48838151649976452
aF0.49530193274213069
aF0.52691908241968088
a.