(lp1
F0.81649658092772615
aF0
aF0.40824829046386307
aF0.40824829046386307
aF0.48666426339228763
aF0.48666426339228763
aF0.32444284226152509
aF0.64888568452305018
aF0.43133109281375365
aF0.64699663922063044
aF0.32349831961031522
aF0.53916386601719202
aF0.46816458878452227
aF0.58520573598065284
aF0.46816458878452227
aF0.46816458878452227
aF0.2581988897471611
aF0.5163977794943222
aF0.7745966692414834
aF0.2581988897471611
aF0.22645540682891913
aF0.33968311024337872
aF0.45291081365783825
aF0.79259392390121697
aF0.42426406871192851
aF0.56568542494923801
aF0.42426406871192851
aF0.56568542494923801
aF0.6509445549041194
aF0.39056673294247163
aF0.39056673294247163
aF0.52075564392329554
aF0.55470019622522915
aF0.55470019622522915
aF0.55470019622522915
aF0.27735009811261457
aF0.44112877325628463
aF0.58817169767504618
aF0.51465023546566535
aF0.44112877325628463
aF0.5
aF0.5
aF0.5
aF0.5
aF0.46816458878452227
aF0.46816458878452227
aF0.46816458878452227
aF0.58520573598065284
aF0.67267279399631241
aF0.40360367639778749
aF0.47087095579741872
aF0.40360367639778749
aF0.52849819756323313
aF0.46977617561176277
aF0.52849819756323313
aF0.46977617561176277
aF0.47286624374346037
aF0.47286624374346037
aF0.63048832499128049
aF0.39405520311955033
aF0.4923659639173309
aF0.3692744729379982
aF0.4923659639173309
aF0.61545745489666359
aF0.7559289460184544
aF0.3779644730092272
aF0.3779644730092272
aF0.3779644730092272
aF0.5163977794943222
aF0.7745966692414834
aF0.2581988897471611
aF0.2581988897471611
aF0.5163977794943222
aF0.7745966692414834
aF0.2581988897471611
aF0.2581988897471611
aF0
aF0
aF1
aF0
aF0.5222329678670935
aF0.69631062382279141
aF0.3481553119113957
aF0.3481553119113957
aF0.22360679774997896
aF0.67082039324993692
aF0.22360679774997896
aF0.67082039324993692
aF0.40613846605344767
aF0.40613846605344767
aF0.40613846605344767
aF0.7107423155935334
aF0.52075564392329554
aF0.6509445549041194
aF0.39056673294247163
aF0.39056673294247163
aF0.5388159060803247
aF0.5388159060803247
aF0.35921060405354982
aF0.5388159060803247
aF0.43643578047198478
aF0.6546536707079772
aF0.43643578047198478
aF0.43643578047198478
aF0.57735026918962584
aF0
aF0.57735026918962584
aF0.57735026918962584
aF0.5388159060803247
aF0.35921060405354982
aF0.5388159060803247
aF0.5388159060803247
aF0.55470019622522915
aF0.27735009811261457
aF0.55470019622522915
aF0.55470019622522915
aF0.52981294282601754
aF0.39735970711951313
aF0.52981294282601754
aF0.52981294282601754
aF0.55470019622522915
aF0.55470019622522915
aF0.27735009811261457
aF0.55470019622522915
aF0.58834840541455213
aF0.39223227027636809
aF0.39223227027636809
aF0.58834840541455213
aF0.43759497449368367
aF0.43759497449368367
aF0.72932495748947279
aF0.29172998299578912
aF0.3692744729379982
aF0.4923659639173309
aF0.61545745489666359
aF0.4923659639173309
aF0.5388159060803247
aF0.5388159060803247
aF0.35921060405354982
aF0.5388159060803247
aF0.457495710997814
aF0.457495710997814
aF0.60999428133041866
aF0.457495710997814
aF0.63245553203367588
aF0.31622776601683794
aF0.31622776601683794
aF0.63245553203367588
aF0.28867513459481292
aF0.86602540378443871
aF0.28867513459481292
aF0.28867513459481292
aF0.45584230583855179
aF0.45584230583855179
aF0.34188172937891381
aF0.68376345875782762
aF0.35634832254989918
aF0.44543540318737396
aF0.62360956446232352
aF0.53452248382484879
aF0
aF0
aF1
aF0
aF0.84852813742385702
aF0.1414213562373095
aF0.42426406871192851
aF0.28284271247461901
aF0.62554324217122437
aF0.62554324217122437
aF0.20851441405707477
aF0.41702882811414954
aF0.39223227027636809
aF0.39223227027636809
aF0.58834840541455213
aF0.58834840541455213
aF0.52981294282601754
aF0.52981294282601754
aF0.39735970711951313
aF0.52981294282601754
aF0.57735026918962584
aF0.57735026918962584
aF0
aF0.57735026918962584
aF0.3481553119113957
aF0.5222329678670935
aF0.69631062382279141
aF0.3481553119113957
aF0.54321447625511121
aF0.45267873021259264
aF0.54321447625511121
aF0.45267873021259264
aF0.43643578047198478
aF0.6546536707079772
aF0.43643578047198478
aF0.43643578047198478
aF1
aF0
aF0
aF0
aF0.42426406871192851
aF0.42426406871192851
aF0.56568542494923801
aF0.56568542494923801
aF0.48666426339228763
aF0.32444284226152509
aF0.64888568452305018
aF0.48666426339228763
aF0.45267873021259264
aF0.54321447625511121
aF0.45267873021259264
aF0.54321447625511121
aF0.53916386601719202
aF0.43133109281375365
aF0.64699663922063044
aF0.32349831961031522
aF0.43759497449368367
aF0.87518994898736735
aF0.14586499149789456
aF0.14586499149789456
aF0.47885213068057331
aF0.55866081912733556
aF0.47885213068057331
aF0.47885213068057331
aF0.5388159060803247
aF0.5388159060803247
aF0.35921060405354982
aF0.5388159060803247
aF0.47885213068057331
aF0.47885213068057331
aF0.47885213068057331
aF0.55866081912733556
aF0.46017899330842221
aF0.53687549219315922
aF0.53687549219315922
aF0.46017899330842221
aF0.58834840541455213
aF0.39223227027636809
aF0.39223227027636809
aF0.58834840541455213
aF0.457495710997814
aF0.457495710997814
aF0.60999428133041866
aF0.457495710997814
aF0.43643578047198478
aF0.6546536707079772
aF0.43643578047198478
aF0.43643578047198478
aF0.27472112789737807
aF0.27472112789737807
aF0.41208169184606708
aF0.82416338369213415
aF0.39223227027636809
aF0.39223227027636809
aF0.58834840541455213
aF0.58834840541455213
aF0
aF0.70710678118654746
aF0.70710678118654746
aF0
aF0.5
aF0.5
aF0.5
aF0.5
aF0.5
aF0.5
aF0.5
aF0.5
aF0.5
aF0.5
aF0.5
aF0.5
aF0.55215763037423271
aF0.44172610429938614
aF0.55215763037423271
aF0.44172610429938614
aF0.39605901719066977
aF0.4950737714883372
aF0.59408852578600457
aF0.4950737714883372
aF0.40613846605344767
aF0.60920769908017147
aF0.30460384954008574
aF0.60920769908017147
aF0.5163977794943222
aF0.2581988897471611
aF0.7745966692414834
aF0.2581988897471611
aF0.7385489458759964
aF0.61545745489666359
aF0.24618298195866545
aF0.12309149097933272
aF0.56568542494923801
aF0.42426406871192851
aF0.42426406871192851
aF0.56568542494923801
aF0.45267873021259264
aF0.54321447625511121
aF0.54321447625511121
aF0.45267873021259264
aF0.457495710997814
aF0.60999428133041866
aF0.457495710997814
aF0.457495710997814
aF0.39735970711951313
aF0.52981294282601754
aF0.52981294282601754
aF0.52981294282601754
aF0.51847584736521268
aF0.4147806778921701
aF0.4147806778921701
aF0.62217101683825515
aF0.457495710997814
aF0.60999428133041866
aF0.457495710997814
aF0.457495710997814
aF0.5388159060803247
aF0.35921060405354982
aF0.5388159060803247
aF0.5388159060803247
aF0.41239304942116128
aF0.41239304942116128
aF0.32991443953692901
aF0.74230748895809029
aF0.4950737714883372
aF0.39605901719066977
aF0.59408852578600457
aF0.4950737714883372
aF0.56949479745149945
aF0.47457899787624952
aF0.47457899787624952
aF0.47457899787624952
aF0.45267873021259264
aF0.45267873021259264
aF0.54321447625511121
aF0.54321447625511121
aF0.457495710997814
aF0.60999428133041866
aF0.457495710997814
aF0.457495710997814
aF0.39735970711951313
aF0.52981294282601754
aF0.52981294282601754
aF0.52981294282601754
aF0.39605901719066977
aF0.4950737714883372
aF0.59408852578600457
aF0.4950737714883372
aF0.52026598171447191
aF0.52026598171447191
aF0.52026598171447191
aF0.43355498476205995
aF0.28867513459481292
aF0.28867513459481292
aF0.86602540378443871
aF0.28867513459481292
aF0.5
aF0.5
aF0.5
aF0.5
aF0.457495710997814
aF0.60999428133041866
aF0.457495710997814
aF0.457495710997814
aF0.7559289460184544
aF0.3779644730092272
aF0.3779644730092272
aF0.3779644730092272
aF0.52414241836095921
aF0.41931393468876732
aF0.52414241836095921
aF0.52414241836095921
aF0.44721359549995793
aF0.59628479399994394
aF0.59628479399994394
aF0.29814239699997197
aF0.4923659639173309
aF0.61545745489666359
aF0.3692744729379982
aF0.4923659639173309
aF0.48666426339228763
aF0.32444284226152509
aF0.48666426339228763
aF0.64888568452305018
aF0.56568542494923801
aF0.42426406871192851
aF0.56568542494923801
aF0.42426406871192851
aF0.23570226039551587
aF0.47140452079103173
aF0.70710678118654757
aF0.47140452079103173
aF0.53215208419019144
aF0.46563307366641754
aF0.53215208419019144
aF0.46563307366641754
aF0.3779644730092272
aF0.7559289460184544
aF0.3779644730092272
aF0.3779644730092272
aF0.7745966692414834
aF0.2581988897471611
aF0.5163977794943222
aF0.2581988897471611
aF0.48666426339228763
aF0.32444284226152509
aF0.48666426339228763
aF0.64888568452305018
aF0.56568542494923801
aF0.42426406871192851
aF0.56568542494923801
aF0.42426406871192851
aF0.52414241836095921
aF0.41931393468876732
aF0.52414241836095921
aF0.52414241836095921
aF0.67082039324993692
aF0.22360679774997896
aF0.22360679774997896
aF0.67082039324993692
aF0.1690308509457033
aF0.67612340378281321
aF0.50709255283710997
aF0.50709255283710997
aF0
aF0
aF0.70710678118654746
aF0.70710678118654746
aF0.86602540378443871
aF0.28867513459481292
aF0.28867513459481292
aF0.28867513459481292
aF0.5
aF0.5
aF0.5
aF0.5
aF0.39223227027636809
aF0.39223227027636809
aF0.58834840541455213
aF0.58834840541455213
aF0.5222329678670935
aF0.3481553119113957
aF0.69631062382279141
aF0.3481553119113957
aF0.35921060405354982
aF0.5388159060803247
aF0.5388159060803247
aF0.5388159060803247
aF0.7559289460184544
aF0.3779644730092272
aF0.3779644730092272
aF0.3779644730092272
aF0.55470019622522915
aF0.55470019622522915
aF0.55470019622522915
aF0.27735009811261457
aF0.30860669992418382
aF0.30860669992418382
aF0.77151674981045948
aF0.46291004988627571
aF0.22360679774997896
aF0.22360679774997896
aF0.67082039324993692
aF0.67082039324993692
aF0.5
aF0.5
aF0.5
aF0.5
aF0.3779644730092272
aF0.3779644730092272
aF0.3779644730092272
aF0.7559289460184544
aF0.46816458878452227
aF0.58520573598065284
aF0.46816458878452227
aF0.46816458878452227
aF0.5
aF0.5
aF0.5
aF0.5
aF0.5
aF0.5
aF0.5
aF0.5
aF0.5
aF0.5
aF0.5
aF0.5
aF0.39223227027636809
aF0.39223227027636809
aF0.58834840541455213
aF0.58834840541455213
aF0.52981294282601754
aF0.52981294282601754
aF0.52981294282601754
aF0.39735970711951313
aF0.2581988897471611
aF0.7745966692414834
aF0.2581988897471611
aF0.5163977794943222
aF0.7745966692414834
aF0.5163977794943222
aF0.2581988897471611
aF0.2581988897471611
aF0.83205029433784372
aF0
aF0
aF0.55470019622522915
aF0.40613846605344767
aF0.40613846605344767
aF0.7107423155935334
aF0.40613846605344767
aF0.86602540378443871
aF0.28867513459481292
aF0.28867513459481292
aF0.28867513459481292
aF0
aF0
aF1
aF0
aF0
aF1
aF0
aF0
aF0.70710678118654746
aF0.70710678118654746
aF0
aF0
aF0.41602514716892186
aF0.41602514716892186
aF0.41602514716892186
aF0.69337524528153649
aF0.64715022892943397
aF0.55470019622522904
aF0.36980013081681939
aF0.36980013081681939
aF0.5
aF0.5
aF0.5
aF0.5
aF0.457495710997814
aF0.457495710997814
aF0.457495710997814
aF0.60999428133041866
aF0.56568542494923801
aF0.56568542494923801
aF0.42426406871192851
aF0.42426406871192851
aF0.5
aF0.5
aF0.5
aF0.5
aF0.30304576336566325
aF0.90913729009698963
aF0.20203050891044214
aF0.20203050891044214
aF0.35603449745815596
aF0.83074716073569732
aF0.23735633163877065
aF0.35603449745815596
aF0.63245553203367588
aF0.63245553203367588
aF0.31622776601683794
aF0.31622776601683794
aF0.5
aF0.5
aF0.5
aF0.5
aF0.7559289460184544
aF0.3779644730092272
aF0.3779644730092272
aF0.3779644730092272
aF0.48666426339228763
aF0.32444284226152509
aF0.48666426339228763
aF0.64888568452305018
aF0.55470019622522915
aF0.55470019622522915
aF0.55470019622522915
aF0.27735009811261457
aF0.5
aF0.5
aF0.5
aF0.5
aF0.47457899787624952
aF0.56949479745149945
aF0.47457899787624952
aF0.47457899787624952
aF0.60633906259083248
aF0.60633906259083248
aF0.36380343755449945
aF0.36380343755449945
aF0.43643578047198478
aF0.6546536707079772
aF0.43643578047198478
aF0.43643578047198478
aF0.6546536707079772
aF0.43643578047198478
aF0.43643578047198478
aF0.43643578047198478
aF0.5
aF0.5
aF0.5
aF0.5
aF0.5
aF0.5
aF0.5
aF0.5
aF0.5222329678670935
aF0.69631062382279141
aF0.3481553119113957
aF0.3481553119113957
aF0.43643578047198478
aF0.43643578047198478
aF0.6546536707079772
aF0.43643578047198478
aF0.5222329678670935
aF0.69631062382279141
aF0.3481553119113957
aF0.3481553119113957
aF0.52414241836095921
aF0.52414241836095921
aF0.41931393468876732
aF0.52414241836095921
aF0.39735970711951313
aF0.52981294282601754
aF0.52981294282601754
aF0.52981294282601754
aF0.63245553203367588
aF0.63245553203367588
aF0.31622776601683794
aF0.31622776601683794
aF0.43643578047198478
aF0.43643578047198478
aF0.43643578047198478
aF0.6546536707079772
aF0.2581988897471611
aF0.7745966692414834
aF0.2581988897471611
aF0.5163977794943222
aF0.29172998299578912
aF0.43759497449368367
aF0.72932495748947279
aF0.43759497449368367
aF0.39223227027636809
aF0.39223227027636809
aF0.58834840541455213
aF0.58834840541455213
aF0.39223227027636809
aF0.58834840541455213
aF0.39223227027636809
aF0.58834840541455213
aF0.65079137345596849
aF0.65079137345596849
aF0.32539568672798425
aF0.21693045781865616
aF0.63245553203367588
aF0.63245553203367588
aF0.31622776601683794
aF0.31622776601683794
aF0.31622776601683794
aF0.31622776601683794
aF0.63245553203367588
aF0.63245553203367588
aF0.35921060405354982
aF0.5388159060803247
aF0.5388159060803247
aF0.5388159060803247
aF0.58834840541455213
aF0.39223227027636809
aF0.58834840541455213
aF0.39223227027636809
aF0.48418202613504197
aF0.48418202613504197
aF0.48418202613504197
aF0.54470477940192219
aF0.31622776601683794
aF0.31622776601683794
aF0.63245553203367588
aF0.63245553203367588
aF0.43643578047198478
aF0.43643578047198478
aF0.43643578047198478
aF0.6546536707079772
aF0.43643578047198478
aF0.6546536707079772
aF0.43643578047198478
aF0.43643578047198478
aF0.5
aF0.5
aF0.5
aF0.5
aF0.5
aF0.5
aF0.5
aF0.5
aF0.34299717028501764
aF0.34299717028501764
aF0.8574929257125441
aF0.17149858514250882
aF0.46816458878452227
aF0.46816458878452227
aF0.58520573598065284
aF0.46816458878452227
aF0.6546536707079772
aF0.43643578047198478
aF0.43643578047198478
aF0.43643578047198478
aF0.8574929257125441
aF0.17149858514250882
aF0.34299717028501764
aF0.34299717028501764
aF0.6546536707079772
aF0.43643578047198478
aF0.43643578047198478
aF0.43643578047198478
aF0.52981294282601754
aF0.52981294282601754
aF0.52981294282601754
aF0.39735970711951313
aF0.6509445549041194
aF0.52075564392329554
aF0.39056673294247163
aF0.39056673294247163
aF0.42426406871192851
aF0.56568542494923801
aF0.42426406871192851
aF0.56568542494923801
aF0.457495710997814
aF0.457495710997814
aF0.60999428133041866
aF0.457495710997814
aF0.55470019622522915
aF0.55470019622522915
aF0.55470019622522915
aF0.27735009811261457
aF0.35921060405354982
aF0.5388159060803247
aF0.5388159060803247
aF0.5388159060803247
aF0.3779644730092272
aF0.3779644730092272
aF0.3779644730092272
aF0.7559289460184544
aF0.52981294282601754
aF0.39735970711951313
aF0.52981294282601754
aF0.52981294282601754
aF0.56568542494923801
aF0.42426406871192851
aF0.42426406871192851
aF0.56568542494923801
aF0.43643578047198478
aF0.43643578047198478
aF0.6546536707079772
aF0.43643578047198478
aF0.69631062382279141
aF0.5222329678670935
aF0.3481553119113957
aF0.3481553119113957
aF0.6546536707079772
aF0.43643578047198478
aF0.43643578047198478
aF0.43643578047198478
aF0.65275336576821963
aF0.46625240412015689
aF0.37300192329612553
aF0.46625240412015689
aF0.52414241836095921
aF0.52414241836095921
aF0.41931393468876732
aF0.52414241836095921
aF0.55470019622522915
aF0.55470019622522915
aF0.55470019622522915
aF0.27735009811261457
aF0.69631062382279141
aF0.3481553119113957
aF0.5222329678670935
aF0.3481553119113957
aF0.59628479399994394
aF0.29814239699997197
aF0.44721359549995793
aF0.59628479399994394
aF0.5
aF0.5
aF0.5
aF0.5
aFnan
aFnan
aFnan
aFnan
aF0.60999428133041866
aF0.457495710997814
aF0.457495710997814
aF0.457495710997814
aF0.31622776601683794
aF0.63245553203367588
aF0.63245553203367588
aF0.31622776601683794
aF0.54433105395181736
aF0.40824829046386302
aF0.6804138174397717
aF0.27216552697590868
aF0.6155870112510925
aF0.5129891760425771
aF0.5129891760425771
aF0.30779350562554625
aF0.457495710997814
aF0.60999428133041866
aF0.457495710997814
aF0.457495710997814
aF0.5
aF0.5
aF0.5
aF0.5
aF0.58834840541455213
aF0.39223227027636809
aF0.58834840541455213
aF0.39223227027636809
aF0.3481553119113957
aF0.3481553119113957
aF0.69631062382279141
aF0.5222329678670935
aF0.67990010365008491
aF0.38851434494290565
aF0.48564293117863205
aF0.38851434494290565
aF0.52981294282601754
aF0.52981294282601754
aF0.52981294282601754
aF0.39735970711951313
aF0.5121475197315839
aF0.5121475197315839
aF0.25607375986579195
aF0.64018439966447993
aF0.5212860351426869
aF0.31277162108561218
aF0.31277162108561218
aF0.72980044919976172
aF0.6546536707079772
aF0.43643578047198478
aF0.43643578047198478
aF0.43643578047198478
aF0.47457899787624952
aF0.47457899787624952
aF0.47457899787624952
aF0.56949479745149945
aF0.55866081912733556
aF0.47885213068057331
aF0.47885213068057331
aF0.47885213068057331
aF0.57735026918962573
aF0.46188021535170054
aF0.57735026918962573
aF0.34641016151377541
aF0.5
aF0.5
aF0.5
aF0.5
aF0.58520573598065284
aF0.46816458878452227
aF0.46816458878452227
aF0.46816458878452227
aF0.3779644730092272
aF0.3779644730092272
aF0.3779644730092272
aF0.7559289460184544
aF0.5222329678670935
aF0.69631062382279141
aF0.3481553119113957
aF0.3481553119113957
aF0.43643578047198478
aF0.6546536707079772
aF0.43643578047198478
aF0.43643578047198478
aF0.53916386601719202
aF0.43133109281375365
aF0.64699663922063044
aF0.32349831961031522
aF0.457495710997814
aF0.60999428133041866
aF0.457495710997814
aF0.457495710997814
aF0.55470019622522915
aF0.27735009811261457
aF0.55470019622522915
aF0.55470019622522915
aF0.56568542494923801
aF0.42426406871192851
aF0.56568542494923801
aF0.42426406871192851
aF0.46816458878452227
aF0.46816458878452227
aF0.58520573598065284
aF0.46816458878452227
aF0.86602540378443871
aF0.28867513459481292
aF0.28867513459481292
aF0.28867513459481292
aF0.88888888888888884
aF0.22222222222222221
aF0.33333333333333331
aF0.22222222222222221
aF0.58834840541455213
aF0.39223227027636809
aF0.58834840541455213
aF0.39223227027636809
aF0.43643578047198478
aF0.43643578047198478
aF0.6546536707079772
aF0.43643578047198478
aF0.457495710997814
aF0.457495710997814
aF0.60999428133041866
aF0.457495710997814
aF0.58834840541455213
aF0.58834840541455213
aF0.39223227027636809
aF0.39223227027636809
aF0.43643578047198478
aF0.43643578047198478
aF0.6546536707079772
aF0.43643578047198478
aF0.55215763037423271
aF0.44172610429938614
aF0.44172610429938614
aF0.55215763037423271
aF0.47140452079103173
aF0.47140452079103173
aF0.23570226039551587
aF0.70710678118654757
aF0.5
aF0.5
aF0.5
aF0.5
aF0.5
aF0.5
aF0.5
aF0.5
aF0.52075564392329554
aF0.39056673294247163
aF0.39056673294247163
aF0.6509445549041194
aF0.3779644730092272
aF0.3779644730092272
aF0.3779644730092272
aF0.7559289460184544
aF0.39223227027636809
aF0.58834840541455213
aF0.39223227027636809
aF0.58834840541455213
aF0.5
aF0.5
aF0.5
aF0.5
aF0.5
aF0.5
aF0.5
aF0.5
aF0.5
aF0.5
aF0.5
aF0.5
aF0.60999428133041866
aF0.457495710997814
aF0.457495710997814
aF0.457495710997814
aF0.32991443953692901
aF0.41239304942116128
aF0.74230748895809029
aF0.41239304942116128
aF0.5
aF0.5
aF0.5
aF0.5
aF0.44353276257274371
aF0.51745488966820097
aF0.51745488966820097
aF0.51745488966820097
aF0.41931393468876732
aF0.52414241836095921
aF0.52414241836095921
aF0.52414241836095921
aF0.47457899787624952
aF0.47457899787624952
aF0.47457899787624952
aF0.56949479745149945
aF0.59408852578600457
aF0.39605901719066977
aF0.4950737714883372
aF0.4950737714883372
aF0.3481553119113957
aF0.69631062382279141
aF0.5222329678670935
aF0.3481553119113957
aF0.5
aF0.5
aF0.5
aF0.5
aF0.3692744729379982
aF0.4923659639173309
aF0.61545745489666359
aF0.4923659639173309
aF0
aF0
aF1
aF0
aF0.2581988897471611
aF0.2581988897471611
aF0.5163977794943222
aF0.7745966692414834
aF0.40000000000000002
aF0.80000000000000004
aF0.20000000000000001
aF0.40000000000000002
aF0
aF1
aF0
aF0
aF0.43643578047198478
aF0.43643578047198478
aF0.6546536707079772
aF0.43643578047198478
aF0.46563307366641754
aF0.46563307366641754
aF0.53215208419019144
aF0.53215208419019144
aF0.6546536707079772
aF0.43643578047198478
aF0.43643578047198478
aF0.43643578047198478
aF0.48564293117863205
aF0.38851434494290565
aF0.67990010365008491
aF0.38851434494290565
aF0.4923659639173309
aF0.4923659639173309
aF0.3692744729379982
aF0.61545745489666359
aF0.58834840541455213
aF0.39223227027636809
aF0.58834840541455213
aF0.39223227027636809
aF0.3779644730092272
aF0.7559289460184544
aF0.3779644730092272
aF0.3779644730092272
aF0.86602540378443871
aF0.28867513459481292
aF0.28867513459481292
aF0.28867513459481292
aF0.40613846605344767
aF0.60920769908017147
aF0.60920769908017147
aF0.30460384954008574
aF0.31622776601683794
aF0.31622776601683794
aF0.63245553203367588
aF0.63245553203367588
aF0.42640143271122083
aF0.21320071635561041
aF0.21320071635561041
aF0.85280286542244166
aF0.4923659639173309
aF0.61545745489666359
aF0.3692744729379982
aF0.4923659639173309
aF0.39735970711951313
aF0.52981294282601754
aF0.52981294282601754
aF0.52981294282601754
aF0.32444284226152509
aF0.48666426339228763
aF0.64888568452305018
aF0.48666426339228763
aF0.52075564392329554
aF0.39056673294247163
aF0.6509445549041194
aF0.39056673294247163
aF0.43643578047198478
aF0.43643578047198478
aF0.6546536707079772
aF0.43643578047198478
aF0.43643578047198478
aF0.43643578047198478
aF0.43643578047198478
aF0.6546536707079772
aF0.457495710997814
aF0.457495710997814
aF0.60999428133041866
aF0.457495710997814
aF0
aF0
aF1
aF0
aF0.55215763037423271
aF0.44172610429938614
aF0.55215763037423271
aF0.44172610429938614
aF0.3779644730092272
aF0.3779644730092272
aF0.7559289460184544
aF0.3779644730092272
aF0
aF0.33333333333333331
aF0.66666666666666663
aF0.66666666666666663
aF0.34641016151377541
aF0.57735026918962573
aF0.46188021535170054
aF0.57735026918962573
aF0.457495710997814
aF0.457495710997814
aF0.457495710997814
aF0.60999428133041866
aF0.29172998299578912
aF0.72932495748947279
aF0.43759497449368367
aF0.43759497449368367
aF1
aF0
aF0
aF0
aF0.5
aF0.5
aF0.5
aF0.5
aF0.5
aF0.5
aF0.5
aF0.5
aF0.5
aF0.5
aF0.5
aF0.5
aF0.69337524528153649
aF0.41602514716892186
aF0.41602514716892186
aF0.41602514716892186
aF0.43643578047198478
aF0.43643578047198478
aF0.6546536707079772
aF0.43643578047198478
aF0.73029674334022143
aF0.36514837167011072
aF0.54772255750516607
aF0.18257418583505536
aF0.44721359549995793
aF0.89442719099991586
aF0
aF0
aF0.3779644730092272
aF0.3779644730092272
aF0.7559289460184544
aF0.3779644730092272
aF0.52849819756323313
aF0.46977617561176277
aF0.46977617561176277
aF0.52849819756323313
aF0.47140452079103173
aF0.23570226039551587
aF0.47140452079103173
aF0.70710678118654757
aF0.63245553203367588
aF0.31622776601683794
aF0.63245553203367588
aF0.31622776601683794
aF0.41380294430118397
aF0.57932412202165751
aF0.49656353316142077
aF0.49656353316142077
aF0.60999428133041866
aF0.457495710997814
aF0.457495710997814
aF0.457495710997814
aF0.46816458878452227
aF0.46816458878452227
aF0.46816458878452227
aF0.58520573598065284
aF0.43643578047198478
aF0.43643578047198478
aF0.43643578047198478
aF0.6546536707079772
aF0.5
aF0.5
aF0.5
aF0.5
aF0.57735026918962573
aF0.34641016151377541
aF0.57735026918962573
aF0.46188021535170054
aF0.5
aF0.5
aF0.5
aF0.5
aF0.5
aF0.5
aF0.5
aF0.5
aF0.47885213068057331
aF0.47885213068057331
aF0.47885213068057331
aF0.55866081912733556
aF0.5
aF0.5
aF0.5
aF0.5
aF0.6546536707079772
aF0.43643578047198478
aF0.43643578047198478
aF0.43643578047198478
aF0.6509445549041194
aF0.39056673294247163
aF0.39056673294247163
aF0.52075564392329554
aF0.55215763037423271
aF0.44172610429938614
aF0.55215763037423271
aF0.44172610429938614
aF1
aF0
aF0
aF0
aF0.3779644730092272
aF0.7559289460184544
aF0.3779644730092272
aF0.3779644730092272
aF0.42426406871192851
aF0.56568542494923801
aF0.56568542494923801
aF0.42426406871192851
aF0.5163977794943222
aF0.2581988897471611
aF0.2581988897471611
aF0.7745966692414834
aF0.47036043419179863
aF0.5644325210301584
aF0.5644325210301584
aF0.37628834735343891
aF0.37721676807715887
aF0.62869461346193145
aF0.37721676807715887
aF0.56582515211573836
aF0.53687549219315922
aF0.46017899330842221
aF0.53687549219315922
aF0.46017899330842221
aF0.5
aF0.5
aF0.5
aF0.5
aF0.28867513459481292
aF0.86602540378443871
aF0.28867513459481292
aF0.28867513459481292
aF0.60999428133041866
aF0.457495710997814
aF0.457495710997814
aF0.457495710997814
aF0.3779644730092272
aF0.3779644730092272
aF0.7559289460184544
aF0.3779644730092272
aF0.3779644730092272
aF0.3779644730092272
aF0.3779644730092272
aF0.7559289460184544
aF0.58834840541455213
aF0.39223227027636809
aF0.58834840541455213
aF0.39223227027636809
aF0.32879797461071458
aF0.32879797461071458
aF0.32879797461071458
aF0.82199493652678646
aF0.7745966692414834
aF0.2581988897471611
aF0.2581988897471611
aF0.5163977794943222
aF0.38851434494290565
aF0.38851434494290565
aF0.48564293117863205
aF0.67990010365008491
aF0.27500954910846342
aF0.82502864732539016
aF0.45834924851410569
aF0.18333969940564226
aF0.43643578047198478
aF0.6546536707079772
aF0.43643578047198478
aF0.43643578047198478
aF0.34174306308670438
aF0.51261459463005654
aF0.51261459463005654
aF0.59805036040173265
aF0.45267873021259264
aF0.54321447625511121
aF0.54321447625511121
aF0.45267873021259264
aF0.5
aF0.5
aF0.5
aF0.5
aF0.70710678118654746
aF0
aF0.70710678118654746
aF0
aF0.56949479745149945
aF0.47457899787624952
aF0.47457899787624952
aF0.47457899787624952
aF0.57735026918962584
aF0.57735026918962584
aF0
aF0.57735026918962584
aF0.5
aF0.5
aF0.5
aF0.5
aF0.2581988897471611
aF0.2581988897471611
aF0.7745966692414834
aF0.5163977794943222
aF0.5
aF0.5
aF0.5
aF0.5
aF0.39605901719066977
aF0.4950737714883372
aF0.4950737714883372
aF0.59408852578600457
aF0.3779644730092272
aF0.7559289460184544
aF0.3779644730092272
aF0.3779644730092272
aF0.4950737714883372
aF0.39605901719066977
aF0.4950737714883372
aF0.59408852578600457
aF0.51189069688899147
aF0.51189069688899147
aF0.58501793930170454
aF0.36563621206356534
aF0.5
aF0.5
aF0.5
aF0.5
aF0.5163977794943222
aF0.2581988897471611
aF0.7745966692414834
aF0.2581988897471611
aF0.39223227027636809
aF0.39223227027636809
aF0.58834840541455213
aF0.58834840541455213
aF0.29814239699997197
aF0.59628479399994394
aF0.44721359549995793
aF0.59628479399994394
aF0.5
aF0.5
aF0.5
aF0.5
aF0.35921060405354982
aF0.17960530202677491
aF0.89802651013387458
aF0.17960530202677491
aF0.32659863237109044
aF0.16329931618554522
aF0.24494897427831783
aF0.89814623902049862
aF0.5
aF0.5
aF0.5
aF0.5
aF0.35856858280031806
aF0.47809144373375745
aF0.35856858280031806
aF0.71713716560063612
aF0.2581988897471611
aF0.2581988897471611
aF0.5163977794943222
aF0.7745966692414834
aF0.7559289460184544
aF0.3779644730092272
aF0.3779644730092272
aF0.3779644730092272
aF0.23735633163877065
aF0.35603449745815596
aF0.35603449745815596
aF0.83074716073569732
aF0.57154760664940818
aF0.48989794855663565
aF0.32659863237109044
aF0.57154760664940818
aF0.40689422938557973
aF0.73240961289404349
aF0.24413653763134782
aF0.48827307526269564
aF0.47457899787624952
aF0.56949479745149945
aF0.47457899787624952
aF0.47457899787624952
aF0.98974331861078702
aF0.082478609884232251
aF0.082478609884232251
aF0.082478609884232251
aF0.27735009811261457
aF0.55470019622522915
aF0.55470019622522915
aF0.55470019622522915
aF0.5
aF0.5
aF0.5
aF0.5
aF0.5
aF0.5
aF0.5
aF0.5
aF0.58520573598065284
aF0.46816458878452227
aF0.46816458878452227
aF0.46816458878452227
aF0.5222329678670935
aF0.69631062382279141
aF0.3481553119113957
aF0.3481553119113957
aF0.36514837167011072
aF0.18257418583505536
aF0.54772255750516607
aF0.73029674334022143
aF0.5
aF0.5
aF0.5
aF0.5
aF0.69337524528153649
aF0.41602514716892186
aF0.41602514716892186
aF0.41602514716892186
aF0.457495710997814
aF0.457495710997814
aF0.457495710997814
aF0.60999428133041866
aF0.39223227027636809
aF0.58834840541455213
aF0.58834840541455213
aF0.39223227027636809
aF0.47885213068057331
aF0.55866081912733556
aF0.47885213068057331
aF0.47885213068057331
aF0.37628834735343891
aF0.5644325210301584
aF0.5644325210301584
aF0.47036043419179863
aF0.55215763037423271
aF0.44172610429938614
aF0.55215763037423271
aF0.44172610429938614
aF0.457495710997814
aF0.60999428133041866
aF0.457495710997814
aF0.457495710997814
aF0.5
aF0.5
aF0.5
aF0.5
aF0.39223227027636809
aF0.58834840541455213
aF0.39223227027636809
aF0.58834840541455213
aF0.40824829046386302
aF0.54433105395181736
aF0.27216552697590868
aF0.6804138174397717
aF0.5
aF0.5
aF0.5
aF0.5
aF0.41208169184606708
aF0.27472112789737807
aF0.27472112789737807
aF0.82416338369213415
aF0.44543540318737396
aF0.35634832254989918
aF0.62360956446232352
aF0.53452248382484879
aF0.5
aF0.5
aF0.5
aF0.5
aF0.43133109281375365
aF0.64699663922063044
aF0.32349831961031522
aF0.53916386601719202
aF0.5
aF0.5
aF0.5
aF0.5
aF0.5222329678670935
aF0.69631062382279141
aF0.3481553119113957
aF0.3481553119113957
aF0.36514837167011072
aF0.18257418583505536
aF0.54772255750516607
aF0.73029674334022143
aF0.62554324217122437
aF0.62554324217122437
aF0.41702882811414954
aF0.20851441405707477
aF0.55215763037423271
aF0.44172610429938614
aF0.55215763037423271
aF0.44172610429938614
aF0.63245553203367588
aF0.63245553203367588
aF0.31622776601683794
aF0.31622776601683794
aF0.6546536707079772
aF0.43643578047198478
aF0.43643578047198478
aF0.43643578047198478
aF0.4950737714883372
aF0.39605901719066977
aF0.59408852578600457
aF0.4950737714883372
aF0.3481553119113957
aF0.3481553119113957
aF0.5222329678670935
aF0.69631062382279141
aF0.28867513459481292
aF0.28867513459481292
aF0.86602540378443871
aF0.28867513459481292
aF0.45267873021259264
aF0.45267873021259264
aF0.54321447625511121
aF0.54321447625511121
aF0.35856858280031806
aF0.71713716560063612
aF0.47809144373375745
aF0.35856858280031806
aF0.41931393468876732
aF0.52414241836095921
aF0.52414241836095921
aF0.52414241836095921
aF0.6546536707079772
aF0.43643578047198478
aF0.43643578047198478
aF0.43643578047198478
aF0.52981294282601754
aF0.52981294282601754
aF0.39735970711951313
aF0.52981294282601754
aF0.34641016151377541
aF0.57735026918962573
aF0.57735026918962573
aF0.46188021535170054
aF0.57735026918962584
aF0
aF0.57735026918962584
aF0.57735026918962584
aF0.56568542494923801
aF0.42426406871192851
aF0.56568542494923801
aF0.42426406871192851
aF0.43643578047198478
aF0.43643578047198478
aF0.43643578047198478
aF0.6546536707079772
aF0.5
aF0.5
aF0.5
aF0.5
aF0.3779644730092272
aF0.7559289460184544
aF0.3779644730092272
aF0.3779644730092272
aF0.5
aF0.5
aF0.5
aF0.5
aF0.5
aF0.5
aF0.5
aF0.5
aF0.39223227027636809
aF0.58834840541455213
aF0.39223227027636809
aF0.58834840541455213
aF0.5
aF0.5
aF0.5
aF0.5
aF0.3779644730092272
aF0.3779644730092272
aF0.3779644730092272
aF0.7559289460184544
a.