(lp1
F6
aF6
aF6
aF5
aF5
aF5
aF5
aF4
aF4
aF5
aF5
aF5
aF5
aF5
aF6
aF5
aF3
aF5
aF3
aF3
aF9
aF4
aF5
aF5
aF7
aF5
aF3
aF8
aF8
aF6
aF11
aF6
aF3
aF1
aF1
aF1
aI0
aI0
aF2
aI0
aI0
aF2
aI0
aI0
aF1
aF1
aI0
aI0
aF6
aF7
aF7
aF8
aF11
aF8
aF6
aF6
aF4
aF4
aF4
aF5
aF3
aF3
aF3
aF4
aF7
aF6
aF7
aF6
aF4
aF3
aF3
aF5
aF7
aF8
aF5
aF8
aF6
aF12
aF6
aF5
aF4
aF4
aF4
aF6
aF3
aF3
aF3
aF2
aF2
aF1
aF1
aF1
aF4
aF4
aF4
aF4
aF7
aF7
aF7
aF8
aF5
aF5
aF6
aF6
aF11
aF9
aF8
aF8
aF6
aF6
aF5
aF5
aF4
aF7
aF4
aF4
aF5
aF5
aF6
aF5
aF2
aF4
aF2
aF4
aF5
aF5
aF5
aF5
aF7
aF7
aF7
aF7
aF5
aF5
aF5
aF7
aF6
aF6
aF5
aF4
aF9
aF9
aF9
aF9
aF3
aF3
aF4
aF4
aF5
aF4
aF4
aF4
aF3
aF3
aF3
aF4
aF3
aF3
aF4
aF2
aF5
aF5
aF9
aF4
aF5
aF6
aF6
aF7
aF-3
aF-4
aF-4
aF-5
aF8
aF7
aF5
aF5
aF3
aF2
aF2
aF2
aF2
aF2
aF3
aF3
aF5
aF8
aF5
aF6
aF5
aF5
aF4
aF4
aF11
aF11
aF11
aF12
aF4
aF4
aF5
aF4
aF5
aF5
aF5
aF7
aF3
aF5
aF3
aF3
aF4
aF4
aF4
aF4
aF3
aF3
aF3
aF3
aF5
aF4
aF7
aF4
aF5
aF5
aF6
aF5
aF4
aF3
aF3
aF3
aF9
aF7
aF7
aF7
aF10
aF6
aF6
aF6
aF5
aF5
aF6
aF5
aF7
aF5
aF5
aF5
aF4
aF4
aF4
aF5
aF5
aF7
aF5
aF5
aF5
aF6
aF5
aF4
aF3
aF3
aF3
aF4
aF2
aF2
aF4
aF4
aF6
aF4
aF5
aF5
aF4
aF4
aF4
aF5
aF4
aF4
aF4
aF4
aF4
aF3
aF2
aF2
aF5
aF5
aF5
aF5
aF7
aF6
aF5
aF6
aF6
aF6
aF6
aF7
aF5
aF6
aF5
aF5
aF5
aF5
aF5
aF5
aF5
aF2
aF3
aF3
aF3
aF3
aF3
aF4
aF3
aF3
aF3
aF3
aF5
aF4
aF4
aF4
aF2
aF3
aF4
aF2
aF7
aF6
aF7
aF5
aF8
aF6
aF7
aF7
aF6
aF7
aF6
aF6
aF4
aF5
aF4
aF5
aF5
aF4
aF5
aF4
aF3
aF3
aF7
aF3
aF10
aF9
aF10
aF9
aF7
aF8
aF8
aF6
aF4
aF4
aF6
aF4
aF7
aF9
aF8
aF11
aF10
aF8
aF8
aF8
aF10
aF9
aF10
aF11
aF13
aF12
aF12
aF11
aF14
aF14
aF13
aF13
aF13
aF13
aF13
aF13
aF15
aF9
aF13
aF15
aF3
aF3
aF3
aF4
aF6
aF7
aF5
aF5
aF6
aF6
aF6
aF7
aF10
aF9
aF11
aF8
aF3
aF3
aF3
aF3
aF4
aF5
aF4
aF4
aF6
aF4
aF6
aF4
aF5
aF5
aF6
aF5
aF3
aF2
aF2
aF2
aF7
aF3
aF5
aF4
aF7
aF6
aF6
aF7
aF5
aF7
aF6
aF8
aF7
aF7
aF9
aF7
aF6
aF6
aF5
aF5
aF4
aF4
aF5
aF4
aF9
aF7
aF7
aF8
aF8
aF8
aF7
aF6
aF3
aF3
aF4
aF3
aF6
aF5
aF5
aF5
aF11
aF11
aF11
aF10
aF5
aF5
aF5
aF8
aF2
aF3
aF2
aF3
aF4
aF5
aF4
aF4
aF2
aF3
aF2
aF2
aF12
aF12
aF13
aF13
aF6
aF4
aF4
aF4
aF7
aF8
aF11
aF9
aF6
aF6
aF6
aF6
aF6
aF8
aF6
aF6
aF7
aF6
aF6
aF7
aF8
aF8
aF8
aF9
aF6
aF6
aF7
aF7
aF3
aF3
aF4
aF3
aF4
aF4
aF4
aF4
aF6
aF7
aF5
aF5
aI0
aF1
aF4
aI0
aF2
aF2
aF2
aF3
aF3
aF5
aF2
aF3
aF2
aF2
aF2
aF1
aF3
aF3
aF4
aF4
aF7
aF7
aF8
aF8
aF7
aF6
aF6
aF6
aF6
aF6
aF7
aF5
aF5
aF5
aF5
aF5
aF5
aF4
aF7
aF4
aF2
aF4
aF2
aF2
aF2
aF2
aF2
aF2
aF4
aF8
aF8
aF4
aF2
aF2
aF3
aF2
aF5
aF4
aF5
aF4
aF5
aF7
aF6
aF5
aF3
aF4
aF4
aF4
aF4
aF5
aF6
aF5
aF5
aF4
aF6
aF4
aF6
aF6
aF12
aF6
aF6
aF8
aF6
aF8
aF8
aF8
aF8
aF8
aF2
aF2
aF4
aF2
aF8
aF8
aF9
aF8
aF7
aF7
aF7
aF7
aF4
aF4
aF5
aF5
aF4
aF6
aF4
aF6
aF5
aF4
aF4
aF4
aF5
aF6
aF5
aF5
aF3
aF3
aF3
aF3
aF2
aF3
aF2
aF2
aF4
aF4
aF5
aF4
aF5
aF5
aF5
aF5
aF6
aF6
aF6
aF6
aF3
aF3
aF4
aF3
aF8
aF7
aF7
aF7
aF4
aF4
aF5
aF4
aF3
aF3
aF8
aF3
aF12
aF14
aF12
aF12
aF9
aF6
aF9
aF11
aF5
aF4
aF8
aF4
aF7
aF8
aF7
aF7
aF7
aF6
aF6
aF6
aF5
aF4
aF5
aF6
aF3
aF2
aF2
aF4
aF5
aF6
aF4
aF4
aF6
aF2
aF5
aF4
aF6
aF7
aF5
aF6
aF7
aF6
aF7
aF6
aF9
aF9
aF9
aF10
aF5
aF6
aF5
aF5
aF4
aF3
aF3
aF3
aF7
aF5
aF5
aF5
aF7
aF5
aF6
aF7
aF5
aF3
aF3
aF3
aF4
aF5
aF4
aF4
aF6
aF6
aF7
aF5
aF6
aF5
aF5
aF7
aF12
aF11
aF13
aF11
aF6
aF10
aF6
aF9
aF8
aF8
aF8
aF8
aF7
aF7
aF7
aF7
aF4
aF6
aF4
aF4
aF5
aF4
aF4
aF4
aF5
aF5
aF8
aF5
aF5
aF6
aF3
aF5
aF3
aF3
aF3
aF2
aF6
aF3
aF4
aF6
aF4
aF2
aF3
aF3
aF9
aF9
aF11
aF12
aF5
aF11
aF10
aF4
aF4
aF7
aF4
aF4
aF6
aF6
aF6
aF14
aF7
aF6
aF6
aF6
aF3
aF3
aF3
aF3
aF7
aF7
aF7
aF7
aF7
aF5
aF5
aF5
aF2
aF2
aF1
aF2
aF4
aF4
aF4
aF4
aF2
aF2
aF5
aF5
aF5
aF5
aF5
aF5
aF8
aF8
aF8
aF8
aF2
aF4
aF2
aF2
aF17
aF12
aF17
aF19
aF9
aF9
aF10
aF8
aF6
aF7
aF6
aF6
aF6
aF6
aF6
aF6
aF4
aF3
aF3
aF5
aF7
aF8
aF7
aF7
aF2
aF2
aF2
aF2
aF4
aF4
aF6
aF4
aF8
aF7
aF8
aF19
aF4
aF4
aF6
aF4
aF3
aF4
aF3
aF6
aF4
aF3
aF5
aF4
aF3
aF3
aF4
aF3
aF4
aF4
aF5
aF7
aF8
aF7
aF6
aF9
aF6
aF12
aF5
aF9
aF5
aF5
aF5
aF5
aF9
aF5
aF2
aF2
aF3
aF3
aF2
aF3
aF3
aF2
aF2
aF2
aF3
aF4
aF3
aF3
aF3
aF2
aF2
aF2
aF4
aF6
aF3
aF4
aF7
aF5
aF7
aF6
aF4
aF3
aF3
aF3
aF8
aF5
aF5
aF6
aF4
aF4
aF5
aF4
aF4
aF4
aF4
aF4
aF9
aF9
aF9
aF9
aF7
aF8
aF8
aF7
aF8
aF7
aF8
aF7
aF5
aF5
aF5
aF5
aF5
aF5
aF6
aF5
aF4
aF5
aF4
aF5
aF6
aF7
aF5
aF8
aF5
aF5
aF5
aF5
aF10
aF5
aF5
aF8
aF11
aF11
aF13
aF11
aF2
aF2
aF3
aF2
aF9
aF10
aF9
aF12
aF5
aF5
aF5
aF6
aF5
aF6
aF5
aF4
aF2
aF2
aF8
aF10
aF6
aF7
aF5
aF5
aF6
aF6
aF7
aF8
aF4
aF6
aF3
aF3
aF4
aF3
aF3
aF3
aF4
aF4
aF4
aF4
aF7
aF6
aF7
aF7
aF5
aF4
aF8
aF4
aF7
aF7
aF8
aF7
aF6
aF7
aF6
aF6
aF6
aF8
aF8
aF8
aF7
aF6
aF7
aF6
aF6
aF5
aF5
aF6
aF5
aF6
aF5
aF4
aF4
aF2
aF5
aF2
aF4
aF5
aF5
aF4
aF6
aF6
aF6
aF8
aF5
aF5
aF5
aF5
aF2
aF3
aF2
aF2
aF5
aF5
aF5
aF5
aF6
aF6
aF6
aF6
aF5
aF5
aF4
aF4
aF3
aF2
aF2
aF3
aF2
aF2
aF2
aF5
a.