(lp1
F3.2224302593927843
aF3.0525312225973869
aF3.4178195136255147
aF3.2224302593927843
aF2.147534497341991
aF1.9776354605465936
aF2.342923751574721
aF2.147534497341991
aF1.2447947988461909
aF1.6502599069543553
aF1.6502599069543553
aF1.6502599069543553
aF2.2096470973347766
aF2.2096470973347766
aF2.4736126431692411
aF2.2096470973347766
aF1.3998453944982456
aF2.3806746475099714
aF1.8053105026064098
aF1.8053105026064098
aF4.2505236712539523
aF2.6286632388212956
aF2.628663238821296
aF2.6286632388212956
aF3.1441718104916685
aF2.1633425574799423
aF2.0692760484408748
aF3.5496369185998327
aF4.2789231457756509
aF4.0149575999411864
aF5.4953184701001456
aF4.0149575999411864
aF1.2163953243244932
aF0.40546510810816438
aF0.40546510810816438
aF0.40546510810816438
aI0
aI0
aF0.66943065394262935
aI0
aI0
aF0.81093021621632877
aI0
aI0
aF0.40546510810816438
aF0.40546510810816438
aI0
aI0
aF2.6701304107817694
aF2.6701304107817694
aF2.6701304107817694
aF3.0755955188899335
aF4.3729896548147194
aF4.0688472919002168
aF3.2040273837248576
aF2.628663238821296
aF2.3048421197536419
aF2.3048421197536419
aF2.3048421197536419
aF2.5688076655881069
aF1.5000396263121103
aF1.5000396263121103
aF1.5000396263121103
aF2.0754037712156719
aF2.6938271481706337
aF2.5239281113752368
aF2.5239281113752368
aF2.6938271481706337
aF1.9177798873134044
aF1.6502599069543553
aF1.6502599069543553
aF1.9450095319470906
aF3.6893359479405134
aF5.5569279449248983
aF2.7843392226851171
aF4.264700092844075
aF3.0199052939978843
aF5.201650727145755
aF4.3405326206004045
aF3.5952694389014459
aF2.549445170925571
aF2.549445170925571
aF1.8800145169829419
aF2.4553786618865034
aF1.5402164433921472
aF1.5402164433921472
aF1.5402164433921472
aF1.8640375624598016
aF0.81093021621632877
aF0.40546510810816438
aF0.40546510810816438
aF0.40546510810816438
aF1.804181989226612
aF1.3987168811184476
aF1.804181989226612
aF2.2096470973347766
aF3.9521061396287624
aF4.6066883524280486
aF4.0461726486678282
aF4.1060282219010187
aF2.4865937106131453
aF2.6819829648458753
aF2.7285029804807683
aF2.781343335605881
aF4.4351576770848222
aF5.2498970662103135
aF4.6745329213067519
aF4.2555167798202316
aF4.3067526543628993
aF3.1560243645557757
aF2.5806602196522133
aF2.0052960747486512
aF1.6810439861126256
aF3.0271615301524788
aF1.6810439861126256
aF1.6810439861126256
aF2.2162313139361505
aF2.6216964220443146
aF2.6216964220443146
aF2.6216964220443146
aF1.6810439861126256
aF2.0048651051802802
aF1.2755788780044612
aF1.8509430229080228
aF2.2695026705679653
aF2.6749677786761299
aF2.2695026705679653
aF2.6749677786761299
aF3.238407213915925
aF3.238407213915925
aF2.8986091403251302
aF2.493144032216966
aF2.4611901231706845
aF2.8009881967614785
aF2.0557250150625199
aF2.8009881967614785
aF2.5689765599732959
aF2.5689765599732959
aF2.229178486382501
aF1.8237133782743369
aF2.8009881967614785
aF2.8009881967614785
aF2.6630430690123634
aF3.0685081771205276
aF1.6354114658110128
aF2.2107756107145744
aF2.2107756107145744
aF2.2107756107145744
aF2.3048421197536419
aF2.0557250150625199
aF1.8858259782671225
aF2.0557250150625199
aF1.635411465811013
aF1.635411465811013
aF1.8053105026064102
aF1.80531050260641
aF2.0557250150625199
aF2.0557250150625199
aF2.0557250150625195
aF1.4803608701589579
aF2.2096470973347766
aF1.8041819892266122
aF3.4668644161795243
aF1.9740810260220094
aF2.493144032216966
aF2.6630430690123634
aF2.8986091403251302
aF4.1558264591698784
aF-0.98082925301172608
aF-1.3862943611198904
aF-1.3862943611198904
aF-1.8237133782743369
aF3.9676934410917433
aF3.0401087025988303
aF2.7228986422455521
aF1.9936124150697341
aF1.3461175440398534
aF1.1762185072444562
aF1.3461175440398532
aF0.77075339913629182
aF1.0748957620507937
aF0.66943065394262935
aF1.0748957620507937
aF1.4401840530789209
aF1.5952346487309756
aF2.3964230044781112
aF2.0006997568391403
aF2.3245208759067939
aF2.1473058997869887
aF1.7515826521480176
aF1.921481688943415
aF1.7515826521480176
aF5.553878455504571
aF5.553878455504571
aF5.553878455504571
aF5.9593435636127357
aF2.0382906312099784
aF2.0382906312099784
aF2.8492208474263068
aF2.61365477611354
aF1.7840090803348958
aF1.7840090803348958
aF1.7840090803348958
aF2.5547624794711874
aF1.3090044040341606
aF2.0797578031704522
aF1.3090044040341606
aF1.3090044040341606
aF1.4401840530789209
aF1.4401840530789209
aF1.4401840530789209
aF1.4401840530789209
aF1.176218507244456
aF1.176218507244456
aF1.176218507244456
aF1.176218507244456
aF2.2511142692952495
aF2.4210133060906465
aF3.9772067040059351
aF2.2511142692952495
aF1.8858259782671225
aF1.8858259782671225
aF2.2912910863752867
aF1.8858259782671225
aF1.5402164433921472
aF1.1347513352839826
aF1.1347513352839826
aF1.1347513352839826
aF4.8523465254102334
aF2.8651978019494475
aF3.2706629100576121
aF3.2706629100576121
aF4.239626505238542
aF2.9007651973532838
aF2.9007651973532838
aF2.9007651973532838
aF4.2649764403933306
aF4.3662991855869926
aF4.5178759258271954
aF4.001010894558866
aF3.1325488879233072
aF3.0321894193204812
aF2.5571847430197461
aF2.5571847430197465
aF2.5345967297822281
aF2.6523797654386119
aF1.80531050260641
aF2.68578028701531
aF2.68578028701531
aF3.0912453951234742
aF2.68578028701531
aF2.8556793238107074
aF2.515881250219913
aF2.4824807286432145
aF2.0408765739191774
aF1.6354114658110128
aF1.7680429426107387
aF1.8041819892266122
aF1.6502599069543553
aF1.8993770116454776
aF1.6875274669500264
aF1.6229889458124553
aF1.6116949391936966
aF1.5537674767705023
aF2.4747411565490394
aF2.3048421197536419
aF2.3048421197536419
aF2.3048421197536419
aF2.2209411039535354
aF2.352275172988274
aF1.9332590315017544
aF2.3908401407489324
aF2.2096470973347762
aF1.804181989226612
aF2.2096470973347762
aF1.804181989226612
aF2.7251556690051491
aF2.3196905608969844
aF1.9142254527888201
aF1.9142254527888201
aF3.6557970316878561
aF2.8448668154715269
aF2.8448668154715269
aF2.8448668154715269
aF2.9265108045120374
aF2.3671236141316165
aF2.3671236141316165
aF2.3671236141316165
aF3.2845428593855699
aF3.2845428593855699
aF3.2845428593855699
aF3.4544418961809669
aF2.7566117677166404
aF2.9265108045120374
aF3.0205773135511049
aF2.3511466596084758
aF3.3455269459985573
aF2.5345967297822285
aF2.9400618378903927
aF2.5345967297822285
aF2.4611901231706841
aF1.2163953243244932
aF2.1972245773362191
aF2.0273255405408221
aF2.5333681468544085
aF2.5333681468544085
aF2.5333681468544085
aF3.5141973998661333
aF1.1507282898071234
aF1.1507282898071234
aF2.3671236141316165
aF1.1507282898071234
aF2.7349448270317471
aF2.329479718923583
aF2.9048438638271441
aF2.329479718923583
aF1.1347513352839829
aF1.5000396263121101
aF1.6185818930204807
aF1.1347513352839829
aF5.2586935977747453
aF3.8969261775013497
aF4.4037140308031777
aF3.2274955235587202
aF4.8028861793475839
aF4.1334555254049539
aF4.1334555254049539
aF4.3033545622003517
aF3.542343023533252
aF4.7015634341539219
aF3.3035185725886933
aF3.1368779154250874
aF2.1400496636323938
aF2.2193310922941585
aF1.9142254527888201
aF2.2089750777815556
aF2.0048651051802802
aF1.5993999970721156
aF2.1747641419756771
aF1.5993999970721156
aF0.98082925301172597
aF1.3862943611198904
aF2.3671236141316165
aF1.7101154801875447
aF6.1127878944606273
aF4.7264935333407356
aF5.1319586414489002
aF4.7264935333407356
aF3.4373509026732396
aF3.7321005276659749
aF3.9253051775935979
aF2.8619867577696776
aF2.6026896854443837
aF2.6026896854443837
aF2.9424877590351777
aF3.1780538303479453
aF2.8790777512774053
aF3.0489767880728031
aF3.0489767880728027
aF3.859907004289131
aF2.9679779764725116
aF2.1570477602561824
aF2.1570477602561824
aF2.1570477602561824
aF3.3763523416650401
aF3.571741595897771
aF3.3763523416650401
aF3.7416406326931679
aF5.4204335262779511
aF4.6911472991021297
aF4.8450693813743877
aF4.6911472991021297
aF3.7189377447809222
aF3.8728598270531789
aF3.7189377447809222
aF3.2974956821496173
aF3.5490387079855248
aF3.7029607902577815
aF3.5490387079855248
aF3.5490387079855248
aF4.7370345577883226
aF3.7351630860875171
aF3.9358462020411844
aF4.5112103469447469
aF0.89690732933036854
aF0.89690732933036854
aF0.89690732933036854
aF1.7397914545929793
aF2.7450085524918157
aF2.4785909446829888
aF1.66766072846666
aF1.6951864279931386
aF2.3914142358286177
aF2.7968793439367814
aF2.3914142358286177
aF2.9667783807321784
aF4.4069624338110991
aF3.8717751059875747
aF5.3877916868228253
aF2.8909458529758494
aF2.5210456964038732
aF2.6749677786761294
aF1.9456815515003116
aF2.3511466596084762
aF2.7850112422383377
aF2.9549102790337347
aF2.7850112422383377
aF2.7850112422383373
aF2.2695026705679657
aF1.5402164433921472
aF2.1155805882957086
aF1.9456815515003114
aF2.6909447331992711
aF2.6909447331992711
aF2.6909447331992702
aF2.6909447331992711
aF1.6218604324326575
aF1.2163953243244932
aF0.81093021621632877
aF1.2163953243244932
aF3.9073400575237631
aF1.7101154801875447
aF2.455378661886503
aF1.7101154801875447
aF3.1904763503465023
aF2.4611901231706845
aF3.2064533048696431
aF3.2845428593855699
aF1.3987168811184478
aF1.9740810260220094
aF1.9740810260220094
aF2.3795461341301736
aF2.5899187761201583
aF2.5899187761201583
aF3.3192050032959761
aF2.5899187761201583
aF3.2151733719013476
aF3.5389944909690012
aF2.8097082637931834
aF2.8097082637931834
aF2.162441990318305
aF2.162441990318305
aF3.1238157490632457
aF2.162441990318305
aF4.0190706138494479
aF3.3496399599068196
aF3.3496399599068196
aF3.9250041048103812
aF2.4166723873724676
aF2.4765279606056572
aF2.3226058783334
aF2.5581719496461677
aF1.3862943611198904
aF1.4803608701589579
aF1.6538143414789397
aF1.5402164433921472
aF2.8645052052464686
aF2.2891410603429074
aF2.2891410603429074
aF2.2891410603429074
aF3.3195190865954851
aF3.2254525775564171
aF3.3793746598286738
aF3.4610186488691848
aF2.9530554456053428
aF2.5475903374971791
aF2.5475903374971791
aF4.6718671807397065
aF0.81093021621632877
aF1.2163953243244932
aF0.81093021621632877
aF1.5402164433921472
aF1.691400000625229
aF2.0968651087333932
aF1.691400000625229
aF1.691400000625229
aF0.88046978440890011
aF1.2859348925170644
aF1.2859348925170644
aF0.88046978440890011
aF4.2284962097187577
aF4.1344297006796902
aF4.5523173287864109
aF4.2883517829519464
aF2.265874427104468
aF1.3388613078852585
aF1.7443264159934226
aF1.7443264159934229
aF3.3476993470202574
aF4.818318356710023
aF6.7325438094988437
aF4.4624609996645503
aF2.539131691182674
aF2.1336665830745094
aF1.728201474966345
aF2.1336665830745098
aF3.3615039005216976
aF3.726792191549825
aF3.3615039005216971
aF3.3615039005216971
aF2.7861397556181364
aF2.7861397556181364
aF2.7861397556181364
aF3.1514280466462639
aF3.8228941826780387
aF3.4174290745698741
aF3.8228941826780387
aF4.188182473706167
aF3.7034992977022769
aF2.762846861770587
aF2.7628468617705879
aF2.7628468617705875
aF1.8701249188563884
aF2.9462643516724385
aF2.2755900269645521
aF1.8701249188563884
aF2.0240470011286451
aF2.0240470011286451
aF1.6185818930204807
aF1.6185818930204807
aF3.1824276515311771
aF3.1824276515311771
aF3.7892958440404763
aF3.2139316991369147
aI0
aF0.40546510810816438
aF1.5367379036485032
aI0
aF1.2163953243244932
aF1.2163953243244932
aF1.2163953243244932
aF1.7917594692280547
aF1.7917594692280547
aF2.6026896854443837
aF1.7917594692280547
aF1.7917594692280547
aF0.81093021621632877
aF0.81093021621632877
aF0.81093021621632877
aF0.40546510810816438
aF0.98082925301172608
aF1.3862943611198904
aF1.7101154801875444
aF1.3862943611198904
aF4.4334904054881266
aF4.6033894422835235
aF4.7211724779399065
aF4.4334904054881266
aF3.6509596637934956
aF3.8208587005888921
aF3.245494555685331
aF3.245494555685331
aF4.2263238086970567
aF4.5140058811488366
aF4.4618898800098243
aF4.2263238086970567
aF3.1678883371089843
aF3.0738218280699168
aF2.4984576831663547
aF3.7432524820125459
aF2.2430248733702212
aF1.8777365823420946
aF2.2430248733702212
aF1.4722714742339302
aF0.81093021621632877
aF1.7078375455466974
aF0.81093021621632877
aF0.81093021621632877
aF1.7917594692280547
aF1.2163953243244932
aF1.3862943611198904
aF0.81093021621632877
aF2.6484899814783853
aF4.7040670100369679
aF4.4401014642025034
aF2.0155481979824827
aF1.2447947988461909
aF1.0748957620507937
aF1.5272222721815538
aF1.4706190096897644
aF2.6398092269977855
aF1.9326873802897184
aF2.4796520506715822
aF2.9135166333014437
aF2.7338757360368531
aF3.1393408441450177
aF2.7338757360368531
aF2.7338757360368531
aF1.2632567263470891
aF1.6687218344552535
aF1.6687218344552535
aF1.6687218344552535
aF1.3461175440398534
aF2.5944667774106285
aF2.9999318855187926
aF1.7515826521480176
aF2.3469615220388849
aF1.7715973771353231
aF2.752426630147049
aF1.7715973771353231
aF2.9076390672997419
aF2.9076390672997419
aF4.5934073178249664
aF2.9076390672997419
aF2.8908480409511932
aF3.8515152018701873
aF2.8908480409511932
aF3.9894603296193027
aF2.8035211186334816
aF2.7094546095944145
aF2.5395555727990171
aF2.5395555727990167
aF0.98082925301172597
aF0.98082925301172608
aF1.3461175440398532
aF0.98082925301172597
aF3.9797396258779374
aF3.7157740800434729
aF3.8856731168388698
aF3.7157740800434724
aF2.2281569737299205
aF2.134090464690853
aF1.964191427895456
aF1.964191427895456
aF2.0951898986479747
aF2.5006550067561388
aF2.5006550067561388
aF2.5006550067561388
aF1.8760841177979288
aF2.281549225906093
aF1.8760841177979288
aF2.2815492259060934
aF2.1874827168670254
aF1.7820176087588611
aF1.7820176087588611
aF2.1874827168670254
aF2.4909131462869456
aF3.3382110066741486
aF2.3573817536624229
aF2.3573817536624233
aF1.4803608701589579
aF1.2163953243244932
aF1.2163953243244932
aF1.2163953243244932
aF0.98082925301172597
aF0.98082925301172597
aF0.98082925301172608
aF0.98082925301172597
aF1.8858259782671223
aF1.7917594692280547
aF1.8858259782671223
aF1.7917594692280547
aF3.1845104690723445
aF3.184510469072344
aF3.184510469072344
aF3.1845104690723445
aF3.6658081049368381
aF2.3269467970515798
aF2.3269467970515798
aF2.3269467970515798
aF1.4803608701589579
aF1.4803608701589579
aF2.149791524101587
aF1.4803608701589579
aF4.9777147131708119
aF3.5717415958977705
aF3.7132411581714702
aF3.307776050063306
aF2.379546134130174
aF3.0562330242273985
aF2.1155805882957086
aF1.7101154801875444
aF1.2755788780044612
aF1.2755788780044612
aF2.9856943581920055
aF1.2755788780044612
aF5.9325753618399046
aF6.7435055780562339
aF5.52711025373174
aF5.9325753618399046
aF3.8169947735441916
aF3.0575964867633232
aF3.8169947735441916
aF4.9517461088281767
aF2.4263071678115846
aF1.4454779147998587
aF3.1857054545924526
aF1.4454779147998587
aF3.6758117566751611
aF4.3953561233817862
aF3.9996328757428152
aF4.071535004314133
aF2.3048421197536419
aF1.8993770116454776
aF2.3048421197536419
aF1.8993770116454776
aF2.6151122054429408
aF2.9389333245105949
aF2.6151122054429408
aF3.0108354530819117
aF1.0748957620507935
aF1.3388613078852585
aF1.7443264159934229
aF1.4803608701589579
aF2.2677695949727363
aF2.4216916772449926
aF2.0978705581773385
aF2.0978705581773385
aF2.6144401858897197
aF1.8509430229080228
aF2.3504746400552547
aF2.3504746400552547
aF3.4965874392957867
aF3.363056046671264
aF3.3648297374912799
aF3.2423637539305141
aF3.1219064103458933
aF2.9883750177213706
aF2.990148708541386
aF2.8676827249806207
aF4.8087357169131213
aF5.2142008250212868
aF4.8087357169131213
aF5.3840998618166847
aF1.9776354605465936
aF2.3831005686547577
aF1.9776354605465936
aF1.9776354605465936
aF1.6538143414789395
aF1.2483492333707753
aF1.2483492333707753
aF1.2483492333707753
aF4.5287932165555187
aF2.7885656767629223
aF2.7885656767629223
aF3.3639298216664839
aF4.7001999716179954
aF3.4350144831240694
aF4.4777015977440042
aF6.2998960235829022
aF1.8041819892266122
aF0.58778666490211895
aF0.99325177301028333
aF0.58778666490211895
aF1.804181989226612
aF2.2096470973347762
aF1.3987168811184476
aF1.3987168811184476
aF3.5693156747529855
aF3.6253042095672017
aF4.4497854591618857
aF2.744834425158301
aF3.2115185690355799
aF3.2931625580760904
aF2.8876974499679262
aF4.7078563937176785
aF6.1664288480693168
aF6.6535379452179919
aF6.7417929929728793
aF6.0125067657970597
aF3.6267255376129364
aF4.8431208619374315
aF4.0321906457211014
aF4.4376557538292669
aF3.8685267029796515
aF3.6986276661842541
aF4.1040927742924183
aF3.6986276661842545
aF3.3347847296046114
aF3.3347847296046114
aF3.3347847296046114
aF3.3347847296046114
aF1.8701249188563884
aF3.1149197177025778
aF1.8701249188563884
aF1.8701249188563884
aF2.5895215479056528
aF2.1840564397974886
aF2.1840564397974886
aF2.1840564397974886
aF2.1840564397974886
aF2.1840564397974886
aF3.7402498377127742
aF2.1840564397974886
aF1.5561933979152878
aF1.7515826521480176
aF1.3862943611198904
aF1.7917594692280547
aF1.5402164433921472
aF1.3862943611198904
aF1.2163953243244932
aF0.81093021621632877
aF2.3109698425284386
aF2.1155805882957086
aF2.1155805882957086
aF3.8190850097688762
aF1.804181989226612
aF1.1347513352839826
aF1.1347513352839829
aF1.6218604324326573
aF3.4729712310730694
aF3.8784363391812335
aF4.3682260958592742
aF4.6796246949283713
aF2.0731258365748242
aF4.4804262677864788
aF3.3900513615473331
aF1.8777365823420946
aF1.9177798873134044
aF2.8146872166437715
aF1.9177798873134044
aF1.9177798873134044
aF2.744041880612655
aF3.7248711336243812
aF3.7248711336243812
aF5.436517852080244
aF3.1378770132679086
aF2.9679779764725116
aF2.9679779764725116
aF2.5625128683643466
aF1.4401840530789209
aF1.4401840530789209
aF1.4401840530789209
aF1.4401840530789209
aF4.0712732130450018
aF3.9013741762496053
aF3.9013741762496053
aF3.9013741762496053
aF2.7980789396771142
aF2.0273255405408221
aF2.0273255405408221
aF2.0273255405408221
aF0.77075339913629182
aF0.87011376989629696
aF0.40546510810816438
aF0.77075339913629182
aF2.114908568742488
aF2.114908568742488
aF2.114908568742488
aF2.114908568742488
aF0.77075339913629182
aF0.77075339913629182
aF1.9774068629915913
aF2.2109374522152128
aF2.4116205681688805
aF2.8170856762770451
aF3.182373967305173
aF2.4116205681688805
aF3.2627544435782481
aF4.0749750146750143
aF4.0749750146750143
aF4.8042612418508339
aF0.77075339913629182
aF1.5415067982725834
aF0.77075339913629182
aF0.77075339913629182
aF7.3951735847368774
aF6.0490560406970246
aF8.0646042386795056
aF8.4700693467876711
aF4.2435836965899751
aF4.2435836965899751
aF4.6490488046981397
aF3.4326534803736455
aF4.0282400867557024
aF4.4337051948638679
aF4.0282400867557024
aF4.4337051948638679
aF4.356509575123547
aF3.1625746861595951
aF5.1859496677350201
aF2.757109578051431
aF1.9776354605465936
aF1.8640375624598013
aF2.0048651051802797
aF2.0240470011286451
aF3.8151344508034781
aF4.1697396490294025
aF4.3297490876982456
aF3.6452354140080798
aF0.72928622717581837
aF0.72928622717581837
aF0.72928622717581837
aF0.72928622717581837
aF1.2483492333707753
aF0.84288412526261081
aF3.2100077393942272
aF0.84288412526261081
aF2.8837606991817881
aF2.0728304829654594
aF2.6481946278690205
aF6.8754254052754291
aF0.84288412526261081
aF0.84288412526261081
aF1.4182482701661725
aF0.84288412526261081
aF1.6121185719634639
aF2.8420649296663125
aF1.6121185719634639
aF3.8228941826780387
aF1.6354114658110128
aF1.2299463577028484
aF1.4939119035373134
aF1.635411465811013
aF1.8053105026064102
aF1.2299463577028487
aF1.8053105026064098
aF1.2299463577028487
aF1.1507282898071234
aF2.3955230886533143
aF1.5561933979152875
aF3.1683119698787521
aF5.7034196637090471
aF4.5272011564645895
aF3.6025256750560413
aF4.3974789367492289
aF3.7966245744083342
aF5.3687949268467641
aF2.0865090942207902
aF4.5418877561072941
aF4.2435568544769717
aF5.0544870706933018
aF4.2435568544769717
aF4.2435568544769726
aF6.1293828327440965
aF2.5223360512843098
aF1.176218507244456
aF1.5816836153526204
aF2.0557250150625199
aF2.0557250150625195
aF2.0557250150625195
aF2.0557250150625195
aF1.2163953243244932
aF0.81093021621632877
aF0.81093021621632877
aF0.81093021621632877
aF1.7515826521480178
aF2.3269467970515794
aF1.7515826521480178
aF1.7515826521480178
aF2.0557250150625195
aF1.6502599069543553
aF1.6502599069543553
aF1.6502599069543553
aF3.1443407048768575
aF3.5498058129850216
aF1.9936124150697341
aF2.3990775231778985
aF4.2057444853822661
aF2.6495510874669792
aF3.9861553685926405
aF3.8322332863203838
aF1.8237133782743369
aF1.4182482701661725
aF1.4182482701661725
aF1.4182482701661725
aF3.1443407048768575
aF1.9936124150697341
aF2.3990775231778985
aF2.5689765599732959
aF2.6070228095179124
aF2.6070228095179124
aF3.0716714713060447
aF2.6070228095179124
aF1.9055047344202747
aF1.9055047344202745
aF1.9055047344202745
aF1.9055047344202747
aF3.6038290170527789
aF5.044013070131701
aF3.6038290170527789
aF3.6038290170527789
aF4.6533550866586681
aF5.8697504109831611
aF6.2752155190913275
aF5.8697504109831629
aF3.6746564011823599
aF3.2691912930741953
aF3.6746564011823599
aF3.2691912930741953
aF2.4150544777010401
aF2.8205195858092043
aF2.4150544777010401
aF2.4150544777010401
aF2.1184630032670722
aF2.1184630032670722
aF2.5239281113752363
aF2.1184630032670722
aF2.1184630032670722
aF2.5239281113752363
aF2.1184630032670722
aF2.7878936572097013
aF3.0124879176260757
aF3.4179530257342394
aF3.0124879176260757
aF4.7568143336194995
aF1.7307216456153378
aF2.1361867537235022
aF1.7307216456153378
aF1.7307216456153378
aF3.9137698013614344
aF2.5656291637856214
aF3.2971933256022861
aF4.2986287440418067
aF4.3235680335431272
aF4.7290331416512927
aF5.1344982497594573
aF5.6624293414283882
aF0.84288412526261081
aF0.84288412526261081
aF1.4182482701661725
aF0.84288412526261081
aF4.2447266843649851
aF4.6501917924731497
aF3.8392615762568192
aF4.8760160033167246
aF2.5944667774106289
aF2.5944667774106289
aF2.5944667774106289
aF3.1698309223141905
aF2.8045426312860626
aF3.2100077393942272
aF2.8045426312860626
aF2.3990775231778985
aF1.1507282898071234
aF0.57536414490356169
aF2.2140196993259034
aF3.9238848855400081
aF1.720299543462851
aF2.1577185606172979
aF1.4847334721500838
aF1.4847334721500838
aF2.125764651571016
aF2.1257646515710156
aF2.5631836687254625
aF2.9650943423090439
aF1.2299463577028487
aF1.6673653748572947
aF0.82448124959468427
aF1.3998453944982456
aF2.0968651087333932
aF1.6914000006252288
aF1.6914000006252288
aF1.6914000006252288
aF3.5770354576187078
aF3.0016713127151462
aF3.8445554379777569
aF3.8445554379777569
aF3.3724439867378551
aF2.5615137705215254
aF3.4043978957841365
aF3.9797620406876986
aF3.5047573643869621
aF3.3348583275915646
aF6.3593081748178752
aF3.0992922562787979
aF2.945948510680342
aF2.945948510680342
aF3.3514136187885066
aF3.6153791646229712
aF4.6898247844483132
aF4.6898247844483132
aF3.878894568231984
aF4.6898247844483132
aF3.3099464468280324
aF5.7309597529186771
aF4.8514532451006138
aF4.8514532451006138
aF4.0670605292518465
aF2.6683436481333982
aF3.4390970472696911
aF3.4390970472696911
aF2.4210133060906469
aF2.4210133060906474
aF2.0155481979824827
aF2.4210133060906474
aF2.8790777512774057
aF3.5681871613731864
aF2.8790777512774062
aF2.6435116799646381
aF1.9142254527888201
aF1.6502599069543553
aF2.3795461341301736
aF1.8201589437497525
aF2.3795461341301736
aF2.3795461341301736
aF2.3795461341301736
aF1.9740810260220094
aF2.3511466596084762
aF2.3511466596084762
aF2.3511466596084762
aF3.1620768758248046
aF2.6026896854443837
aF2.6026896854443837
aF2.6026896854443837
aF2.6026896854443837
aF0.98082925301172608
aF2.1972245773362191
aF1.9616585060234522
aF1.3862943611198904
aF1.5402164433921472
aF1.5402164433921472
aF1.5402164433921472
aF1.9456815515003116
aF2.2413724088260563
aF2.2413724088260563
aF2.2413724088260563
aF2.2413724088260563
aF2.3573817536624233
aF1.9519166455542585
aF1.3765525006506969
aF1.7820176087588613
aF1.3461175440398534
aF0.77075339913629182
aF0.77075339913629182
aF1.3461175440398534
aF1.3461175440398534
aF1.3461175440398534
aF1.3461175440398534
aF2.3269467970515798
a.