(lp1
F0.86750056770472317
aF1.2729656758128876
aF0.86750056770472317
aF0.86750056770472317
aF0.51082562376599072
aF0.79850769621777173
aF0.51082562376599072
aF0.72154665508164328
aF1.3827805418200938
aF1.7882456499282582
aF1.3827805418200938
aF1.3827805418200938
aF0.81093021621632877
aF0.81093021621632877
aF1.0340737675305385
aF0.81093021621632877
aF0.58778666490211895
aF0.81093021621632866
aF0.58778666490211895
aF0.58778666490211895
aF1.7351891177396608
aF0.40546510810816438
aF0.74193734472937733
aF0.74193734472937733
aF1.47330573810952
aF0.44628710262841953
aF0.47000362924573547
aF1.47330573810952
aF2.6994207651219964
aF1.628979353420583
aF4.6497852645266899
aF1.628979353420583
aF1.8199303461947511
aF0.72131805752664158
aF0.72131805752664158
aF0.72131805752664158
aF0.40059417787356771
aF0.40059417787356771
aF0.40059417787356771
aF0.40059417787356771
aF0.75764712219480135
aF1.7508988952050846
aF0.75764712219480135
aF0.9399686789887558
aF0.5389965007326869
aF0.5389965007326869
aF0.40059417787356771
aF0.40059417787356771
aF0.95118610772477086
aF1.1088029955285152
aF1.5093971734020828
aF1.6600816452528551
aF2.1021242153946198
aF1.0946983893469733
aF1.5001634974551377
aF1.0340737675305385
aF1.8266548450786706
aF1.4211897369705062
aF1.8266548450786706
aF1.4211897369705062
aF0.62415430907299374
aF0.62415430907299374
aF0.62415430907299374
aF0.66237552189319138
aF1.182157457681253
aF1.0411926885184641
aF1.1474718996933631
aF0.89447538522947212
aF1.0395638715761233
aF1.0395638715761233
aF1.0395638715761233
aF1.126575248565753
aF1.0772679461958494
aF2.8214809220197297
aF1.6319107682861587
aF1.5573219112950862
aF1.38303797100613
aF2.1792060718335411
aF1.3499267169490154
aF1.0886313996704293
aF1.4271163556401454
aF1.4271163556401454
aF1.4271163556401454
aF1.7147984280919262
aF0.92871325187271225
aF0.92871325187271225
aF0.92871325187271225
aF0.80315002889736653
aF0.81093021621632877
aF0.40546510810816438
aF0.40546510810816438
aF0.40546510810816438
aF1.4555158301618438
aF0.72618898776123819
aF1.0500507220536794
aF1.7431979026136248
aF1.7396434680890409
aF1.7396434680890409
aF1.7396434680890409
aF1.7396434680890409
aF0.80866006768178944
aF0.80866006768178944
aF0.96281074750904794
aF0.80866006768178944
aF1.7852716847493122
aF1.7852716847493122
aF0.72131805752664158
aF0.72131805752664158
aF0.69760153090932553
aF0.69760153090932553
aF0.69760153090932553
aF0.69760153090932553
aF1.1159700438533977
aF1.4777600884589004
aF1.0359273361798613
aF1.0359273361798613
aF0.71908624438849
aF0.71908624438849
aF1.1245513524966544
aF0.71908624438849
aF0.76659440239627696
aF0.94891595919023153
aF0.76659440239627696
aF0.76659440239627696
aF1.1145010166431528
aF1.1145010166431528
aF1.1145010166431528
aF1.1145010166431528
aF1.3426037247400571
aF1.3426037247400571
aF1.3426037247400571
aF1.3426037247400571
aF1.4803608701589579
aF1.4803608701589579
aF1.4803608701589579
aF1.4803608701589579
aF0.68072466056138803
aF0.86304621735534259
aF0.91629073187415511
aF0.91629073187415511
aF2.4487676031721266
aF2.4487676031721266
aF1.6302857971918376
aF1.6302857971918376
aF0.81093021621632877
aF0.81093021621632877
aF0.81093021621632877
aF1.0986122886681096
aF1.4983793756616364
aF1.4983793756616364
aF1.4983793756616364
aF1.4983793756616364
aF0.81093021621632866
aF0.81093021621632866
aF0.81093021621632866
aF1.0986122886681096
aF1.398614845507931
aF1.398614845507931
aF2.0917620260678764
aF1.398614845507931
aF1.4746301954499732
aF1.145078401673334
aF1.6175636028007638
aF0.96936213394493609
aF1.4204818314115646
aF1.5509912011261482
aF1.381092164330751
aF1.3049271026152303
aF-1.7204425465768955
aF-2.1259076546850597
aF-2.1259076546850602
aF-1.8258030622347219
aF1.5456833976087381
aF2.0777055528671822
aF0.97562705622258661
aF0.92584874968026054
aF0.44183275227903918
aF0.40546510810816438
aF0.69314718055994518
aF0.40546510810816438
aF0.47957308026188622
aF0.47957308026188622
aF0.62860865942237409
aF0.47957308026188622
aF0.61286030245423495
aF0.74639169507875769
aF0.61286030245423495
aF0.79518185924818963
aF0.5753641449035618
aF0.84729786038720356
aF0.44183275227903918
aF0.44183275227903918
aF2.0876383088840145
aF2.0876383088840145
aF2.0876383088840145
aF2.4931034169921786
aF0.77318988823348178
aF0.77318988823348178
aF0.95574004258243794
aF0.77318988823348178
aF0.54411160139945736
aF0.54411160139945736
aF0.54411160139945736
aF0.54411160139945736
aF0.53454215038330677
aF0.68869283021056515
aF0.53454215038330677
aF0.53454215038330677
aF1.0347714608380045
aF1.0347714608380045
aF1.0347714608380045
aF1.0347714608380045
aF0.81093021621632877
aF0.81093021621632877
aF0.81093021621632877
aF0.81093021621632877
aF1.4402365689461691
aF1.3015531326648002
aF2.4110154861043944
aF1.4177637130941101
aF1.878597701035017
aF1.878597701035017
aF2.2840628091431814
aF1.7244470212077585
aF1.0538763948267182
aF0.64841128671855386
aF0.64841128671855386
aF0.64841128671855386
aF1.8670686427274108
aF1.8391449111393765
aF1.8391449111393765
aF1.8391449111393765
aF1.6306401200847032
aF1.1843530174562837
aF1.5898181255644481
aF1.5898181255644481
aF0.71294980785612494
aF0.71294980785612494
aF0.71294980785612494
aF0.71294980785612494
aF1.1755733298042379
aF0.887891257352457
aF0.887891257352457
aF0.887891257352457
aF0.69314718055994518
aF0.69314718055994518
aF0.69314718055994518
aF0.77318988823348156
aF0.60329085143808414
aF1.0087559595462485
aF0.60329085143808414
aF0.69314718055994518
aF1.1110348086666668
aF1.2933563654606215
aF1.1110348086666668
aF1.1110348086666668
aF1.3200043069435135
aF1.3200043069435135
aF1.3200043069435135
aF1.3200043069435135
aF0.42121346507630342
aF0.42121346507630342
aF0.47445797959511576
aF0.43363598507486056
aF0.76214005204689661
aF0.76214005204689661
aF1.167605160155061
aF1.167605160155061
aF0.72131805752664158
aF0.60353502187025798
aF0.60353502187025798
aF0.89121709432203877
aF0.99325177301028333
aF0.99325177301028333
aF0.99325177301028333
aF0.99325177301028333
aF1.3341783599808765
aF0.74639169507875758
aF0.64435701639051324
aF0.52324814376454787
aF1.6784307839210517
aF1.2163953243244929
aF1.2163953243244929
aF1.2163953243244929
aF2.3772759855956345
aF2.6649580580474153
aF2.3772759855956345
aF2.888101609361625
aF1.6751049469514696
aF1.6751049469514696
aF1.6751049469514696
aF1.9627870194032504
aF1.7808864266230902
aF1.7808864266230902
aF1.7808864266230902
aF1.7808864266230902
aF1.1628045194403449
aF0.85450315978582825
aF1.2599682678939925
aF1.1628045194403449
aF1.3888951428199476
aF0.87806951905395725
aF0.87806951905395725
aF1.1807748932043529
aF0.61903920840622328
aF0.61903920840622328
aF0.61903920840622328
aF0.61903920840622328
aF1.0608719606852623
aF1.0608719606852623
aF1.0608719606852623
aF1.0608719606852623
aF0.81604531688309923
aF0.77764423858286169
aF0.77764423858286169
aF0.77764423858286169
aF0.41343327775734123
aF0.46530510846418138
aF0.48754124991106307
aF0.41343327775734123
aF1.1830228839576817
aF0.88267412107516985
aF1.1184843628201107
aF0.87594962219125039
aF1.4422899090105925
aF1.052092273033217
aF1.1520070548587542
aF1.262482671183351
aF0.89097292388986515
aF0.89097292388986515
aF0.89097292388986515
aF0.89097292388986515
aF0.61903920840622328
aF0.56555052345523715
aF0.48550781578170077
aF0.53329847961804921
aF1.1856236656577392
aF1.1856236656577392
aF1.1856236656577392
aF1.1856236656577392
aF1.5730702682632254
aF1.5730702682632254
aF2.2662174488231708
aF1.5730702682632254
aF1.6711233645892649
aF1.3834412921374841
aF1.3834412921374841
aF1.3834412921374841
aF0.7215466550816434
aF0.52087595961949218
aF0.54856595174883771
aF0.61618613942381706
aF0.95276041165554659
aF0.95276041165554659
aF1.2404424841073274
aF0.95276041165554659
aF1.627180453164794
aF1.2217153450566296
aF1.2217153450566296
aF2.0285090551448404
aF2.8037769607917511
aF1.9928467445754221
aF1.9928467445754223
aF1.9928467445754221
aF1.8457676185191063
aF1.6740150130743863
aF1.8457676185191063
aF1.8457676185191063
aF1.9351866694525812
aF2.1842922295561964
aF2.0789317138983701
aF1.8966101571044156
aF1.306363325615471
aF0.98702122325964703
aF1.0740326002492768
aF0.92778684420603064
aF1.0981024608866443
aF0.9927419452288182
aF0.94605861362616028
aF1.0981024608866443
aF1.5315504636312904
aF1.0499735630482492
aF1.3980190710067679
aF1.9733832159103295
aF0.62860865942237409
aF0.62860865942237409
aF0.62860865942237409
aF0.73396917508020043
aF1.405820779537758
aF1.2282297819714958
aF1.2234992227438035
aF1.405820779537758
aF0.52852520086539156
aF0.62860865942237409
aF0.66188048857789306
aF0.81620727331717235
aF1.3024917881670455
aF1.1778751430861909
aF1.4843656536163499
aF0.92911937873895933
aF1.0340737675305385
aF1.0340737675305385
aF1.0340737675305385
aF1.0340737675305385
aF0.70807283077662087
aF0.99575490322840166
aF0.70807283077662087
aF0.70807283077662087
aF1.1755733298042379
aF0.99325177301028333
aF1.2809338454620642
aF0.99325177301028333
aF1.5239494709282748
aF1.5239494709282748
aF1.9294145790364392
aF1.5239494709282748
aF0.98343815156195868
aF0.98343815156195868
aF0.98343815156195868
aF0.98343815156195868
aF2.1396202920515464
aF0.72391883922669908
aF1.0536665769639924
aF0.76313955237998021
aF1.5993875765805987
aF1.4170660197866443
aF1.4421126799025621
aF1.3117055041288179
aF0.77010822169607351
aF1.1394342831883646
aF0.8517522107365838
aF1.8308299307095037
aF0.85786681173643808
aF0.85786681173643808
aF1.0401883685303925
aF0.85786681173643808
aF0.9891975026822426
aF0.9891975026822426
aF0.9891975026822426
aF0.9891975026822426
aF0.52716204308568404
aF0.52716204308568404
aF0.68131272291294243
aF0.52716204308568404
aF0.97077891715822484
aF0.74763536584401513
aF0.74763536584401513
aF1.0353174382957959
aF0.81093021621632877
aF0.81093021621632877
aF0.81093021621632877
aF0.81093021621632877
aF0.81093021621632877
aF0.81093021621632877
aF0.91629073187415511
aF0.81093021621632877
aF0.70271663157609598
aF0.59735611591826965
aF0.70271663157609598
aF0.59735611591826965
aF0.6399157303370655
aF0.64981153793706958
aF0.6399157303370655
aF1.002821224026434
aF0.63657682907155111
aF0.63657682907155111
aF0.63657682907155111
aF1.1192315758708451
aF1.3034067013141226
aF1.3034067013141226
aF1.3034067013141226
aF1.3034067013141226
aF0.89097292388986515
aF1.2964380319980295
aF0.89097292388986515
aF0.89097292388986515
aF0.19782574332991981
aF0.60329085143808414
aF0.52324814376454787
aF0.19782574332991981
aF1.2407651452322024
aF1.5284472176839832
aF1.3352638070336584
aF1.4230867020261571
aF0.77270900339613113
aF0.72391883922669897
aF0.72391883922669897
aF0.72391883922669897
aF1.4995668583249344
aF1.4995668583249344
aF1.7889145170958234
aF1.6537175381521929
aF0.67219726019169113
aF0.67219726019169113
aF0.67219726019169113
aF0.67219726019169113
aF1.1939224684724346
aF1.3480731482996928
aF1.1939224684724346
aF1.1939224684724346
aF1.3117055041288177
aF1.3117055041288177
aF1.3117055041288177
aF1.465856183956076
aF1.9021623975868154
aF1.9021623975868154
aF1.9021623975868154
aF2.0563130774140737
aF1.3581234841531944
aF1.3581234841531944
aF1.645805556604975
aF1.6458055566049752
aF0.72250782566223037
aF0.72250782566223037
aF0.88503818837005066
aF0.72250782566223037
aF0.58778666490211895
aF0.8442161938497954
aF0.58778666490211895
aF0.58778666490211895
aF0.99074864279216479
aF1.0860588225964898
aF0.99074864279216479
aF0.99074864279216479
aF0.46608972992459924
aF0.58387276558098267
aF0.65660805392273247
aF0.46608972992459924
aF0.7215466550816434
aF0.96758402626170548
aF0.73119524819747517
aF0.90109428499287247
aF0.69314718055994518
aF1.5040773967762739
aF0.51082562376599061
aF0.69314718055994518
aF0.90792248220363847
aF0.90792248220363847
aF0.90792248220363847
aF0.90792248220363847
aF0.75377180237637997
aF0.75377180237637997
aF0.93609335917033454
aF0.75377180237638008
aF2.8586383295547098
aF2.8586383295547098
aF2.8586383295547098
aF3.2641034376628744
aF0.98755375189564565
aF0.98755375189564565
aF0.98755375189564565
aF0.98755375189564565
aF1.3650921534692873
aF0.95962704536112287
aF1.7705572615774516
aF0.95962704536112287
aF0.97204956535968023
aF0.97204956535968023
aF0.97204956535968023
aF0.97204956535968023
aF0.72031044034338243
aF0.72031044034338243
aF1.0286117999978992
aF0.72031044034338243
aF0.92025224251860183
aF0.98924511400555326
aF0.92025224251860183
aF0.92025224251860183
aF1.0409134237999171
aF1.0409134237999171
aF1.2123886653197631
aF1.0409134237999171
aF1.2300926265477414
aF2.1419290080725162
aF2.68889367845438
aF1.16109975506079
aF0.64435701639051324
aF0.64435701639051324
aF0.64435701639051324
aF0.64435701639051324
aF0.67067432470788679
aF0.78845736036427017
aF1.8037342978819619
aF0.86764093871162729
aF0.61855832356887275
aF1.3806983756157694
aF0.8799230877032802
aF0.74639169507875758
aF0.65492596773974765
aF1.060391075847912
aF0.65492596773974765
aF0.65492596773974765
aF0.67067432470788679
aF1.0761394328160512
aF1.4816045409242156
aF1.0761394328160512
aF1.2970128355957218
aF1.009330763143941
aF1.7024779437038862
aF1.009330763143941
aF1.2106739980083683
aF1.3925478634576727
aF1.813989926088978
aF1.3925478634576727
aF1.1158214548978953
aF1.1158214548978953
aF1.1158214548978953
aF1.4035035273496761
aF1.0304010636950878
aF1.0304010636950878
aF1.0304010636950878
aF1.0304010636950878
aF0.47957308026188622
aF0.47445797959511582
aF0.57981849525294205
aF0.5485659517488376
aF1.1647520911726545
aF0.94160853985844484
aF1.1602977408232742
aF0.94160853985844484
aF0.86050202689969035
aF0.86050202689969035
aF0.86050202689969035
aF0.86050202689969035
aF0.98082925301172597
aF0.98082925301172597
aF1.1631508098056806
aF0.98082925301172597
aF0.45198512374305727
aF1.1676051601550612
aF0.78845736036427017
aF1.262915339959386
aF0.82667857318446769
aF0.82667857318446769
aF0.82667857318446769
aF0.82667857318446769
aF1.1143606456362485
aF0.82667857318446769
aF0.70889553752808432
aF0.70889553752808432
aF0.81093021621632877
aF0.81093021621632877
aF0.81093021621632877
aF0.81093021621632877
aF0.49247648509779407
aF0.78015855754957486
aF0.49247648509779407
aF0.49247648509779407
aF1.2163953243244932
aF1.2163953243244932
aF1.4395388756387029
aF1.2163953243244932
aF0.93691001907689087
aF1.290259126046041
aF1.2039728043259359
aF1.2902591260460412
aF1.1814999484738773
aF1.1814999484738773
aF1.1814999484738773
aF1.1814999484738773
aF0.76816870632705281
aF0.76816870632705281
aF0.99131225764126274
aF0.76816870632705281
aF1.4226620052907653
aF1.4226620052907653
aF1.4565635569664466
aF1.4226620052907653
aF0.76247068521241501
aF0.56304366051552124
aF1.0702134236507299
aF0.66474831554256553
aF0.74187325986879327
aF0.74187325986879327
aF1.7960857326687638
aF0.74187325986879327
aF1.5001048574022877
aF2.4894624369217535
aF1.5001048574022877
aF1.5001048574022877
aF1.2725709577867848
aF1.2320795964320479
aF1.2725709577867848
aF1.426721637614043
aF1.0037413695258082
aF0.87540465249331589
aF1.0494274064725753
aF0.87540465249331589
aF1.67113148143944
aF1.9869844308579172
aF1.8534530382333947
aF1.8046628740639628
aF1.3060074830141803
aF0.90054237490601596
aF0.90054237490601596
aF0.90054237490601596
aF1.5199661247513174
aF1.5199661247513174
aF1.5199661247513174
aF1.6534975173758399
aF0.84516808285956868
aF0.48506012443705065
aF0.48506012443705065
aF1.2506331909677331
aF0.98879742266090287
aF1.0657584637970312
aF0.70111535020912208
aF0.70111535020912208
aF1.0423725703452338
aF0.59783700075562041
aF1.2246941271391885
aF0.81922901903102407
aF1.0634883152624921
aF1.135081968449501
aF1.0015505758249785
aF1.112278479431924
aF0.80832943451627126
aF0.67479804189174863
aF0.89794159320595845
aF0.67479804189174863
aF0.99500330604908949
aF0.99500330604908949
aF0.99500330604908949
aF1.2826853785008703
aF0.98082925301172619
aF1.3862943611198906
aF0.98082925301172619
aF0.98082925301172619
aF1.0704414117014136
aF0.66497630359324911
aF0.66497630359324911
aF0.66497630359324911
aF0.97002731997891245
aF0.95543230292775516
aF0.95543230292775516
aF0.95543230292775516
aF1.4477356428428811
aF1.2039728043259359
aF1.322172419867536
aF2.0469877968300971
aF1.7357771800912152
aF0.60899401445640911
aF0.60899401445640911
aF0.60899401445640911
aF0.74193734472937722
aF1.7351891177396608
aF0.74193734472937722
aF0.74193734472937722
aF0.93691001907689087
aF0.93691001907689087
aF1.1192315758708455
aF1.1192315758708453
aF1.6462254364367539
aF1.5284424007803705
aF1.6462254364367539
aF1.925114756940556
aF2.5498650507573499
aF2.6451752305616747
aF2.5498650507573499
aF2.5498650507573499
aF1.5829305860644403
aF2.3718818955619936
aF1.5829305860644403
aF1.6254902004832363
aF1.9377133818511347
aF1.9377133818511347
aF1.9377133818511347
aF1.9377133818511347
aF0.86816131802211283
aF0.86816131802211283
aF0.86816131802211283
aF0.86816131802211283
aF0.76725515271366707
aF1.2668944712193611
aF0.95787551232231705
aF0.76725515271366707
aF0.88503818837005066
aF0.54411160139945736
aF0.54411160139945736
aF0.54411160139945736
aF0.61821957355317925
aF0.61821957355317925
aF1.3196655569278197
aF0.61821957355317925
aF0.86304621735534259
aF0.84729786038720356
aF0.72928622717581837
aF1.6094379124341003
aF0.81093021621632877
aF0.81093021621632877
aF1.2163953243244932
aF0.81093021621632877
aF1.3577276740445905
aF1.0494263143900733
aF1.1631508098056806
aF1.0494263143900733
aF1.7425734949500185
aF0.98082925301172619
aF0.98082925301172619
aF0.98082925301172619
aF1.3452281961674615
aF0.95948491053946594
aF1.275337859957943
aF1.6808029680661074
aF0.63454339494218859
aF3.9190862543277589
aF1.2478764653835992
aF0.96304746191422441
aF0.81093021621632866
aF0.87992308770328009
aF0.81093021621632866
aF0.81093021621632866
aF0.90386821187559785
aF1.0986122886681096
aF1.2163953243244929
aF1.852784171065829
aF1.8193474257468838
aF1.8193474257468838
aF1.8193474257468838
aF1.8193474257468838
aF0.70271663157609598
aF0.70271663157609598
aF0.70271663157609598
aF0.70271663157609598
aF2.0641740695490469
aF2.0641740695490469
aF2.0641740695490469
aF2.0641740695490469
aF2.6445111802977221
aF2.4903605004704641
aF2.4903605004704641
aF2.4903605004704641
aF0.2876820724517809
aF0.35407416223867483
aF0.5389965007326869
aF0.2876820724517809
aF0.5978370007556203
aF0.5978370007556203
aF0.5978370007556203
aF0.5978370007556203
aF0.44183275227903918
aF0.44183275227903918
aF0.70889553752808432
aF0.59598343210629756
aF0.51309577230052983
aF0.69314718055994529
aF0.51309577230052983
aF0.51309577230052983
aF1.2450766999367473
aF2.0766262033558114
aF2.0766262033558114
aF2.0766262033558114
aF0.51418919139395503
aF0.66833987122121341
aF0.51418919139395503
aF0.51418919139395503
aF3.3636935104037526
aF3.3078482141848831
aF3.3636935104037526
aF3.3636935104037526
aF2.4719733734631526
aF2.4719733734631526
aF2.8774384815713168
aF1.6610431572468241
aF0.47957308026188616
aF0.65359583424114565
aF0.47957308026188616
aF0.47957308026188622
aF0.60294091267379635
aF0.79288070035263991
aF0.89508852422355201
aF0.75709159250105462
aF0.58778666490211895
aF0.58778666490211895
aF0.58778666490211895
aF0.66189463705584073
aF1.4288079678553951
aF1.4288079678553951
aF1.4288079678553951
aF1.4288079678553951
aF0.42627237764111481
aF0.42627237764111481
aF0.42627237764111481
aF0.42627237764111481
aF0.91338147478978959
aF1.3345949398660928
aF2.1073682482143581
aF1.1365250261039992
aF2.9512038025582674
aF1.9703745495465417
aF1.8578430836306405
aF3.4130106645998248
aF0.61618613942381706
aF0.61618613942381706
aF0.90386821187559785
aF0.61618613942381706
aF0.77002907959639233
aF0.8424881590598301
aF0.74127966631040643
aF1.2479532671679945
aF0.96686501783708856
aF0.50077528791248938
aF1.111034808666667
aF1.0986122886681096
aF0.57813807178628696
aF0.50077528791248938
aF0.78845736036427017
aF0.50077528791248938
aF0.57536414490356169
aF0.69314718055994518
aF0.98082925301172597
aF2.0359762960398999
aF1.209270745419234
aF1.149325734506212
aF0.8426067956326464
aF2.168416905943007
aF1.1279843669804401
aF2.5663947292393439
aF1.0326741871761151
aF2.2787126567875631
aF1.6218604324326575
aF1.6218604324326575
aF1.6218604324326575
aF1.6218604324326575
aF2.4532064149392454
aF0.71661141989491228
aF0.70271663157609598
aF0.66144694571119067
aF0.916290731874155
aF0.62860865942237409
aF0.51082562376599061
aF0.916290731874155
aF1.2163953243244932
aF0.81093021621632877
aF0.81093021621632877
aF0.81093021621632877
aF0.59598343210629756
aF0.88366550455807835
aF0.59598343210629756
aF0.59598343210629756
aF0.916290731874155
aF0.51082562376599061
aF0.51082562376599061
aF0.51082562376599061
aF1.0661030101028151
aF1.94987055027141
aF1.256723369711465
aF1.256723369711465
aF1.4834966890762535
aF0.96849597967942957
aF0.95432192664206605
aF1.0560526742493139
aF0.51082562376599072
aF0.39304258810960718
aF0.39304258810960718
aF0.39304258810960718
aF1.3513989852692745
aF0.68072466056138803
aF0.77603484036571291
aF0.77603484036571291
aF0.58778666490211895
aF0.58778666490211895
aF0.63705771390890142
aF0.58778666490211895
aF0.77010822169607351
aF0.65599491492865247
aF1.061460023036817
aF0.65599491492865247
aF1.7587176620267617
aF1.7587176620267617
aF1.7587176620267617
aF1.7587176620267617
aF0.86808863005627734
aF1.1866118080306336
aF1.2546165371446909
aF0.98141731536328047
aF1.4554407253886887
aF1.4554407253886887
aF1.6072186972266327
aF1.4554407253886887
aF0.87434022397410183
aF0.790971679330983
aF0.95476747308671617
aF0.9451223591582415
aF0.59783700075562041
aF0.59783700075562041
aF1.0033021088637848
aF0.59783700075562041
aF0.54019770207832107
aF0.86730218869593378
aF0.54019770207832107
aF0.76334125339253078
aF0.91914380085656133
aF1.4505887118252878
aF0.83910109318302495
aF1.3386327103302569
aF1.1642793231854793
aF1.1642793231854793
aF1.1642793231854793
aF1.1642793231854793
aF1.9006206824107355
aF0.50077528791248938
aF0.65232518603969003
aF1.8937941479162992
aF1.1864810311691656
aF1.1864810311691656
aF1.5532063109613994
aF1.304264066825549
aF1.0755508466202388
aF1.0755508466202388
aF1.0755508466202388
aF1.0755508466202388
aF1.3030467126733123
aF1.7085118207814765
aF1.3030467126733123
aF2.0160659673852583
aF0.94260804019152866
aF0.94260804019152866
aF0.94260804019152866
aF0.94260804019152866
aF1.1477330860030601
aF1.5279166394900552
aF1.1477330860030601
aF1.3018837658303184
aF0.67082457637971893
aF0.67082457637971893
aF0.79207382001258853
aF1.244058943755646
aF1.114501016643153
aF0.94037622705337709
aF0.52901139681802434
aF1.1228905049387872
aF1.114501016643153
aF0.93217945984919837
aF1.114501016643153
aF1.1790395377807241
aF1.0056742930088405
aF0.56555052345523715
aF0.6002091849006761
aF0.88824312914309311
aF1.2163953243244932
aF0.81093021621632877
aF0.81093021621632877
aF0.81093021621632877
aF0.99212325963048498
aF0.99212325963048498
aF0.99212325963048498
aF0.99212325963048498
aF1.3144565375007078
aF1.0649956778691245
aF1.0649956778691245
aF1.0649956778691245
aF0.98495297019558814
aF0.98495297019558814
aF1.8477550171187569
aF1.0649956778691245
aF0.89756840972707008
aF0.89756840972707008
aF1.708498625943399
aF0.89756840972707008
aF1.1716863270255526
aF0.7602864833975741
aF0.55474485770082604
aF1.0761394328160514
aF1.3289342462673912
aF1.3289342462673912
aF1.4830849260946497
aF1.4830849260946497
aF1.2274451605110781
aF1.3058865868176406
aF1.3058865868176406
aF1.3058865868176406
aF1.042270534734717
aF1.042270534734717
aF1.042270534734717
aF1.042270534734717
aF1.2163953243244932
aF0.97773201359714612
aF1.0340737675305385
aF0.82358133376988762
aF0.81093021621632866
aF0.81093021621632866
aF0.99325177301028322
aF0.81093021621632866
aF0.98082925301172597
aF1.0414538748281608
aF0.98082925301172597
aF0.98082925301172597
aF1.3578948865981926
aF1.3578948865981926
aF1.3578948865981926
aF2.051042067158138
aF1.9583326690538705
aF1.9583326690538705
aF1.9583326690538705
aF1.9583326690538705
aF0.61792375932235766
aF0.93241708922479538
aF0.79401476636567603
aF0.66667534398907469
aF1.1755733298042379
aF1.1755733298042379
aF1.1755733298042379
aF1.1755733298042379
aF1.3944911283240691
aF1.3944911283240691
aF1.3944911283240691
aF1.3944911283240691
aF1.2560888054649499
aF1.2560888054649499
aF1.2560888054649499
aF1.6615539135731143
aF0.51879379341516751
aF0.51879379341516751
aF0.51879379341516751
aF0.51879379341516751
aF0.69314718055994518
aF0.84729786038720367
aF0.69314718055994518
aF1.5404450409471488
a.