(lp1
F-0.14215686274509803
aF-0.32679738562091504
aF-0.10416666666666667
aF-0.14950980392156862
aF-0.11655773420479303
aF-0.31917211328976036
aF-0.087690631808278865
aF-0.13289760348583879
aF-1
aF-0.084967320261437912
aF-0.054901960784313732
aF-0.05751633986928105
aF-0.2361111111111111
aF-0.23937908496732027
aF-0.1968954248366013
aF-0.26715686274509803
aF-1
aF-0.19911111111111113
aF-0.27377777777777779
aF-0.26577777777777778
aF-0.23999999999999999
aF-0.32228571428571429
aF-0.27657142857142858
aF-0.31314285714285717
aF-0.216
aF-0.46133333333333332
aF-0.26666666666666672
aF-0.216
aF-0.21920000000000001
aF-0.20960000000000001
aF-0.188
aF-0.22240000000000001
aF-0.018957345971563982
aF-1
aF-1
aF-1
aF-1
aF-1
aF-1
aF-1
aF-1
aF-1
aF-1
aF-1
aF-1
aF-1
aF-1
aF-1
aF-0.36978653530377664
aF-0.19835796387520524
aF-0.19835796387520524
aF-0.24072249589490968
aF-0.079474548440065684
aF-0.047947454844006566
aF-0.24532019704433497
aF-1
aF-0.32557098074339458
aF-0.43170622480967313
aF-0.30676220331392745
aF-0.36497984773846842
aF-1
aF-1
aF-1
aF-0.17898193760262726
aF-0.21175030599755201
aF-0.22913096695226437
aF-0.27074663402692778
aF-0.14565483476132191
aF-0.060465116279069767
aF-0.094186046511627902
aF-0.098837209302325577
aF-0.046511627906976744
aF-0.068023255813953493
aF-0.08895348837209302
aF-0.13197674418604652
aF-0.041860465116279069
aF-0.12674418604651164
aF-0.033720930232558136
aF-0.25058139534883722
aF-0.095930232558139539
aF-0.13441780821917806
aF-0.2696917808219178
aF-1
aF-0.2208904109589041
aF-0.44794520547945205
aF-0.44794520547945205
aF-0.44794520547945205
aF-0.16575342465753423
aF-0.013698630136986301
aF-1
aF-1
aF-1
aF-0.28473581213307236
aF-1
aF-0.28180039138943247
aF-0.28082191780821919
aF-0.1348148148148148
aF-0.095111111111111105
aF-0.39348148148148149
aF-0.18933333333333333
aF-0.28405797101449276
aF-0.26106280193236714
aF-0.26106280193236714
aF-0.16966183574879226
aF-0.12374269005847953
aF-0.031461988304093566
aF-0.034035087719298245
aF-0.086549707602339182
aF-0.25925925925925924
aF-0.25537037037037036
aF-0.26425925925925925
aF-1
aF-1
aF-0.1003875968992248
aF-1
aF-1
aF-1
aF-0.5729138166894665
aF-0.21176470588235294
aF-0.31135430916552664
aF-0.33192389006342493
aF-0.090909090909090912
aF-1
aF-0.14503171247357294
aF-1
aF-0.1558139534883721
aF-1
aF-0.34093023255813953
aF-0.18581418581418582
aF-0.16883116883116883
aF-0.21378621378621379
aF-0.38461538461538464
aF-0.53896103896103897
aF-0.45021645021645024
aF-0.26190476190476192
aF-0.1471861471861472
aF-0.18051948051948052
aF-0.16233766233766234
aF-0.21558441558441563
aF-0.34805194805194806
aF-0.29128014842300559
aF-0.28200371057513918
aF-0.10575139146567718
aF-0.1038961038961039
aF-1
aF-0.16914366595895261
aF-0.17905166312809626
aF-0.18329794762915783
aF-0.062420382165605102
aF-0.14267515923566879
aF-0.18343949044585989
aF-0.14904458598726114
aF-0.34872611464968156
aF-0.34554140127388538
aF-0.15923566878980894
aF-0.16082802547770703
aF-0.25636942675159236
aF-0.23248407643312102
aF-0.22770700636942676
aF-0.25636942675159236
aF-0.20332577475434618
aF-0.21541950113378683
aF-0.065759637188208611
aF-0.30385487528344668
aF-0.3439153439153439
aF-0.36100936100936099
aF-0.35002035002035004
aF-0.086284086284086278
aF1
aF0.075837742504409167
aF0.033509700176366841
aF0.037037037037037035
aF-0.079894179894179893
aF-0.5354497354497354
aF-0.10211640211640212
aF-0.13280423280423281
aF-0.19466666666666668
aF-0.40400000000000003
aF-0.31333333333333335
aF-1
aF-0.23777777777777778
aF-1
aF-0.16222222222222221
aF-0.091111111111111115
aF-1
aF-0.04777777777777778
aF-0.36777777777777776
aF-0.14666666666666667
aF-0.076190476190476197
aF-0.24380952380952381
aF-0.1761904761904762
aF-0.25047619047619046
aF-0.24800080979856259
aF-0.24800080979856259
aF-0.24800080979856259
aF-0.24688733677497723
aF-1
aF-1
aF-0.13798541297062883
aF-0.21190616991917999
aF-1
aF-1
aF-1
aF-0.13153558052434455
aF-1
aF-0.052434456928838954
aF-1
aF-1
aF-1
aF-1
aF-1
aF-1
aF-1
aF-1
aF-1
aF-1
aF-0.18362573099415203
aF-0.13567251461988306
aF-0.070175438596491224
aF-0.46374269005847951
aF-1
aF-1
aF-0.15350877192982457
aF-1
aF-0.14611872146118721
aF-1
aF-1
aF-1
aF-0.095205479452054792
aF-1
aF-0.28721461187214609
aF-0.28173515981735159
aF-0.16150854050397431
aF-1
aF-1
aF-1
aF-0.16931506849315067
aF-0.12858447488584474
aF-0.044748858447488583
aF-0.33406392694063924
aF-0.14193548387096774
aF-0.056451612903225805
aF-0.2290322580645161
aF-0.28064516129032258
aF-0.10806451612903226
aF-0.23225806451612904
aF-1
aF-0.055645161290322584
aF-0.60483870967741937
aF-0.17499999999999999
aF-0.39032258064516129
aF-0.33306451612903221
aF-0.059139784946236555
aF-0.1424731182795699
aF-0.19623655913978494
aF-1
aF-0.52884615384615385
aF-0.14102564102564102
aF-0.20192307692307693
aF-0.17147435897435898
aF-0.24084249084249082
aF-0.25915750915750918
aF-0.10989010989010989
aF-0.3113553113553113
aF-0.10256410256410256
aF-0.24475524475524474
aF-0.15384615384615385
aF-0.18065268065268067
aF-0.072649572649572655
aF-0.068376068376068369
aF-0.1111111111111111
aF-0.040598290598290593
aF-1
aF-1
aF-0.11618589743589743
aF-1
aF-0.20192307692307693
aF-0.20993589743589744
aF-1
aF-1
aF-0.23771367521367523
aF-1
aF-1
aF-1
aF-0.036324786324786328
aF-0.02564102564102564
aF-0.036324786324786328
aF-0.02564102564102564
aF-0.3925925925925926
aF-0.29753086419753083
aF-0.26419753086419751
aF-0.17530864197530865
aF-0.20324074074074075
aF-0.16527777777777777
aF-0.28750000000000003
aF-1
aF-0.18386243386243389
aF-1
aF-0.45952380952380956
aF-1
aF-0.033333333333333333
aF-1
aF-0.23086419753086421
aF-0.35308641975308641
aF-1
aF-1
aF-1
aF-0.33632478632478635
aF-1
aF-1
aF-0.020833333333333336
aF-1
aF-0.27166666666666667
aF-1
aF-0.51888888888888896
aF-1
aF-0.55902777777777779
aF-0.11388888888888889
aF-0.024305555555555556
aF-0.56319444444444444
aF-0.035194174757281552
aF-0.15169902912621358
aF-0.076456310679611644
aF-0.27063106796116504
aF-0.14365898058252427
aF-0.31310679611650483
aF-0.29641990291262132
aF-0.12439320388349513
aF-0.0455563853622106
aF-0.027632561613144136
aF-0.093726661687826729
aF-0.053024645257654962
aF-0.13915857605177992
aF-0.035598705501618116
aF-0.12135922330097086
aF-0.053398058252427182
aF-0.41950688905003619
aF-1
aF-0.21464829586656994
aF-1
aF-1
aF-0.2859560067681895
aF-0.018612521150592216
aF-0.25719120135363788
aF-0.31332487309644669
aF-1
aF-0.43248730964467003
aF-1
aF-0.23857868020304568
aF-0.043839409321642819
aF-0.050992155053068755
aF-1
aF-0.05892116182572614
aF-0.052282157676348549
aF-0.068879668049792536
aF-0.039834024896265557
aF-0.10995850622406639
aF-1
aF-1
aF-0.080082987551867227
aF-0.072095435684647297
aF-0.064834024896265566
aF-0.066908713692946056
aF-0.065871369294605811
aF-0.14107883817427386
aF-0.10696173351775012
aF-0.14338404794836332
aF-0.07376671277086215
aF-0.12415584415584416
aF-0.13246753246753248
aF-0.12285714285714286
aF-0.10571428571428572
aF-0.13832512315270937
aF-0.14108374384236452
aF-0.11586206896551723
aF-0.14285714285714285
aF-0.14704761904761907
aF-0.13866666666666666
aF-0.16799999999999998
aF-0.16304761904761905
aF-0.048888888888888885
aF-0.20412698412698413
aF-0.051111111111111114
aF-0.050793650793650794
aF-1
aF-1
aF-1
aF-0.050056561085972846
aF-0.07607466063348417
aF-0.095871040723981893
aF-0.097285067873303155
aF-0.077771493212669685
aF-1
aF-0.44324448529411764
aF-1
aF-0.19485294117647059
aF-0.11330213903743315
aF-0.11341354723707664
aF-0.064505347593582896
aF-0.35360962566844922
aF-0.5683397683397684
aF-0.21544401544401545
aF-1
aF-0.26563706563706568
aF-0.23621621621621625
aF-0.27351351351351355
aF-0.23189189189189191
aF-0.24270270270270272
aF-0.047747747747747753
aF-1
aF-0.078378378378378383
aF-0.43963963963963965
aF-0.12552552552552554
aF-0.39279279279279283
aF-0.10990990990990991
aF-0.16216216216216217
aF-0.48595505617977525
aF-0.54213483146067409
aF-1
aF-0.5308988764044944
aF-0.13764044943820225
aF-0.29119850187265917
aF-0.13764044943820225
aF-0.22752808988764045
aF-0.083146067415730343
aF-0.07528089887640449
aF-0.15168539325842695
aF-0.06741573033707865
aF-1
aF-0.1364365971107544
aF-0.097913322632423749
aF-0.1364365971107544
aF-1
aF-1
aF-0.076262083780880771
aF-1
aF-0.26745435016111707
aF-0.14419978517722878
aF-1
aF-1
aF-1
aF-1
aF-0.046598639455782305
aF-1
aF-0.085884353741496583
aF-1
aF-1
aF-0.21045918367346936
aF-0.15825859491778774
aF-0.16012705530642751
aF-0.26083707025411063
aF-0.4523542600896861
aF-0.67488789237668156
aF-0.48654708520179374
aF-0.011210762331838564
aF-0.51793721973094164
aF-0.36429639120222079
aF-1
aF-1
aF-1
aF-0.18976265995843816
aF-0.29137044733676032
aF-0.19566881767472383
aF-0.434540085311167
aF-0.2919372294372295
aF-1
aF-1
aF-0.030032467532467536
aF-1
aF-0.042207792207792208
aF-1
aF-0.055194805194805199
aF-1
aF-0.32667332667332671
aF-1
aF-1
aF-1
aF-0.43860684769775682
aF-0.29929161747343569
aF-1
aF-0.22911912368781376
aF-0.27220447284345045
aF-0.22802373345504334
aF-0.23185759926973984
aF-0.01650692225772098
aF-1
aF-0.5724174653887113
aF-0.61075612353567621
aF-0.3830214513920584
aF-0.079872204472843447
aF-0.039799178457325418
aF-0.036786855317206754
aF-0.34990415335463254
aF-0.37904153354632586
aF-1
aF-0.35910543130990413
aF-0.26573129251700678
aF-0.079931972789115638
aF-0.32440476190476186
aF-0.31760204081632648
aF-0.29166666666666663
aF-0.32837301587301582
aF-0.33234126984126983
aF-0.08878968253968253
aF-0.086681547619047616
aF-0.16480654761904762
aF-0.088169642857142849
aF-0.056175595238095233
aF-0.05844155844155844
aF-0.23755411255411252
aF-0.15746753246753245
aF-0.1607142857142857
aF-1
aF-0.12657657657657659
aF-0.28671171171171173
aF-1
aF-0.45565878378378383
aF-0.28547297297297297
aF-1
aF-1
aF-0.074324324324324328
aF-0.026767151767151769
aF-0.042099792099792102
aF-0.04807692307692308
aF-1
aF-1
aF-1
aF-1
aF-0.52519379844961245
aF-0.40116279069767441
aF-0.40116279069767441
aF-0.35077519379844962
aF-0.17344961240310078
aF-0.19670542635658914
aF-1
aF-0.16569767441860464
aF-0.062015503875968991
aF-0.77519379844961245
aF-0.031007751937984496
aF-1
aF-1
aF-0.2144702842377261
aF-0.076227390180878554
aF-0.36434108527131781
aF-0.29142637447135716
aF-0.26643598615916958
aF-0.28565936178392926
aF-0.31449442522106885
aF-0.22760476739715493
aF-0.13456362937331798
aF-1
aF-1
aF-0.12995001922337562
aF-0.18262206843521722
aF-0.25182622068435218
aF-0.14302191464821223
aF-0.17156862745098039
aF-0.14270152505446623
aF-1
aF-0.10947712418300654
aF-0.13954451345755692
aF-0.28302277432712214
aF-0.073291925465838514
aF-1
aF-1
aF-0.020186335403726708
aF-1
aF-1
aF-0.18167701863354035
aF-0.47360248447204967
aF-0.18167701863354035
aF-1
aF-0.020408163265306121
aF-0.055900621118012417
aF-0.055900621118012417
aF-1
aF-0.37136465324384788
aF-0.17002237136465323
aF-0.046979865771812082
aF-0.067114093959731544
aF-0.087248322147651006
aF-0.36375838926174497
aF-0.34966442953020133
aF-0.15838926174496645
aF-0.43437733035048476
aF-0.36763609246830725
aF-0.4261744966442953
aF-0.30835197613721099
aF-1
aF-0.27114093959731544
aF-0.39328859060402682
aF-0.39194630872483222
aF-1
aF-0.021978021978021976
aF-0.018315018315018316
aF-0.12820512820512819
aF-0.22019230769230769
aF-1
aF-0.21794871794871795
aF-1
aF-1
aF-1
aF-0.028846153846153844
aF-1
aF-1
aF-0.081646423751686903
aF-1
aF-0.10121457489878542
aF-0.10707204230006609
aF-0.13218770654329148
aF-0.24190350297422342
aF-0.25974884335756776
aF-0.35674157303370785
aF-0.35674157303370785
aF-0.014044943820224719
aF-0.35674157303370785
aF-0.10820713238886175
aF-0.29237909135319978
aF-0.13751831949193943
aF-0.31143136297020024
aF-0.10000000000000001
aF-0.12846441947565543
aF-0.25280898876404495
aF-0.27303370786516856
aF-0.13647058823529412
aF-0.23999999999999999
aF-0.13411764705882354
aF-0.092941176470588235
aF-0.43529411764705883
aF-0.30326797385620918
aF-0.3633986928104575
aF-0.41307189542483663
aF-0.21111111111111108
aF-1
aF-1
aF-0.24967320261437906
aF-0.26705882352941174
aF-0.10764705882352942
aF-0.29764705882352943
aF-0.3023529411764706
aF-0.38410596026490068
aF-0.11920529801324503
aF-0.25165562913907286
aF-0.066225165562913912
aF-0.076158940397350994
aF-0.089403973509933773
aF-0.076158940397350994
aF-0.076158940397350994
aF-0.26490066225165565
aF-0.33774834437086093
aF-0.033112582781456956
aF-0.19867549668874171
aF-0.30704394942805541
aF-0.31005418422636966
aF-0.32149307645996389
aF-0.31607465382299821
aF-0.0833976833976834
aF-1
aF-1
aF-1
aF-1
aF-1
aF-0.17297297297297295
aF-1
aF-0.022844272844272845
aF-0.24839124839124838
aF-0.26351351351351354
aF-0.1463963963963964
aF-0.5273028130170988
aF-0.054054054054054057
aF-0.26861555432984002
aF-1
aF-1
aF-1
aF-0.11655978875895888
aF-1
aF-0.38240286684270086
aF-0.34317238777819692
aF-1
aF-0.38240286684270086
aF-0.045154991457163778
aF-0.15425921405906762
aF-0.045154991457163778
aF-0.044666829387356603
aF-0.19951590594744123
aF-1
aF-0.042876901798063624
aF-1
aF-0.58333333333333337
aF-0.044871794871794879
aF-0.045584045584045586
aF-0.01495726495726496
aF-0.1790986790986791
aF-1
aF-0.48018648018648019
aF-1
aF-0.040170940170940174
aF-0.11880341880341881
aF-0.041880341880341884
aF-0.11880341880341881
aF-0.05840455840455841
aF-0.19515669515669518
aF-0.18660968660968663
aF-0.055555555555555559
aF-0.18985849056603774
aF-0.13443396226415094
aF-0.17452830188679244
aF-0.17452830188679244
aF-0.15523156089193824
aF-0.46440823327615777
aF-0.16809605488850771
aF-0.16766723842195541
aF-0.079716981132075468
aF-0.066037735849056603
aF-0.30047169811320756
aF-0.081132075471698109
aF-0.084276729559748423
aF-0.099056603773584898
aF-0.1141509433962264
aF-0.10125786163522012
aF-0.21577026812628908
aF-0.12406790417261622
aF-0.21577026812628908
aF-0.21180390290337936
aF-1
aF-0.30487313733387034
aF-1
aF-1
aF-0.3496218731820826
aF-1
aF-1
aF-1
aF-0.059685863874345553
aF-1
aF-1
aF-0.46945898778359518
aF-0.080078125
aF-1
aF-0.063210227272727279
aF-0.092329545454545456
aF-1
aF-1
aF-1
aF-1
aF-0.27622767857142855
aF-0.7042410714285714
aF-1
aF-1
aF-0.068080357142857137
aF-0.0625
aF-0.056919642857142856
aF-1
aF-0.10240112994350282
aF-0.30626177024482104
aF-0.31426553672316387
aF-0.24929378531073448
aF-0.083050847457627128
aF-0.34166666666666667
aF-0.07909604519774012
aF-0.27768361581920903
aF-0.24858757062146891
aF-0.20809792843691149
aF-0.28954802259887003
aF-0.26883239171374762
aF-0.13538135593220338
aF-0.34851694915254239
aF-0.37330508474576268
aF-0.3290254237288136
aF-1
aF-1
aF-1
aF-1
aF-1
aF-0.22191358024691354
aF-1
aF-1
aF-0.37462962962962959
aF-1
aF-1
aF-1
aF-1
aF-1
aF-0.15592592592592591
aF-1
aF-0.13565891472868216
aF-0.020671834625322995
aF-0.29198966408268734
aF-0.078811369509043924
aF-0.077519379844961239
aF-0.042635658914728682
aF-0.023255813953488372
aF-1
aF-0.077519379844961239
aF-1
aF-0.4657622739018088
aF-0.096253229974160207
aF-0.062984496124031009
aF-0.34205426356589147
aF-0.3381782945736434
aF-0.18313953488372092
aF-0.22047078604455653
aF-0.1317780580075662
aF-0.051912568306010931
aF-0.066204287515762919
aF-0.22170179547228727
aF-0.070257611241217807
aF-0.048009367681498834
aF-0.35714285714285715
aF-1
aF-0.045992714025500911
aF-1
aF-1
aF-0.4735883424408015
aF-0.14936247723132967
aF-0.2103825136612022
aF-0.028233151183970857
aF-0.44000000000000006
aF-0.59555555555555562
aF-0.22555555555555556
aF-1
aF-1
aF-1
aF-1
aF-1
aF-0.22037037037037036
aF-0.39592592592592596
aF-0.20185185185185187
aF-0.38777777777777778
aF-0.056666666666666664
aF-1
aF-1
aF-1
aF-1
aF-1
aF-1
aF-1
aF-1
aF-1
aF-1
aF-1
aF-1
aF-1
aF-0.063750000000000001
aF-0.077500000000000013
aF-1
aF-0.31687500000000002
aF-0.12250000000000001
aF-1
aF-0.082407407407407415
aF-0.077314814814814808
aF-0.077314814814814808
aF-0.054166666666666669
aF-1
aF-0.016666666666666666
aF-1
aF-1
aF-0.1374485596707819
aF-0.1602880658436214
aF-0.046502057613168724
aF-0.12983539094650207
aF-0.27287581699346408
aF-0.27222222222222225
aF-0.26699346405228763
aF-1
aF-1
aF-0.23759383835429462
aF-1
aF-0.2110753631666179
aF-0.033982889733840303
aF-0.24667300380228135
aF-0.028754752851711026
aF-1
aF-0.11939163498098859
aF-0.11254752851711027
aF-0.041825095057034217
aF-0.027376425855513309
aF-0.10979087452471482
aF-0.032002534854245882
aF-0.025031685678073508
aF-0.14892268694550062
aF-1
aF-1
aF-1
aF-1
aF-0.59449404761904756
aF-1
aF-0.109375
aF-1
aF-0.2935267857142857
aF-1
aF-0.15476190476190477
aF-0.031994047619047616
aF-1
aF-1
aF-0.11532738095238095
aF-1
aF-0.2503337783711615
aF-0.074098798397863819
aF-0.29639519359145527
aF-0.090120160213618142
aF-0.33978638184245658
aF-0.34646194926568752
aF-0.19759679572763683
aF-0.39652870493991987
aF-0.17932242990654204
aF-1
aF-0.25642523364485981
aF-1
aF-1
aF-0.093457943925233641
aF-0.20560747663551401
aF-0.02336448598130841
aF-0.078820697954271962
aF-0.056859205776173288
aF-0.082430806257521055
aF-0.085439229843561976
aF-0.081088586503748949
aF-0.20022216051096917
aF-1
aF-0.062482643710080533
aF-0.48693990231471651
aF-0.48693990231471651
aF-0.48693990231471651
aF-0.49012529199405391
aF-0.021058965102286401
aF-0.10770156438026474
aF-1
aF-0.54753309265944639
aF-0.34909909909909909
aF-0.44369369369369377
aF-0.51126126126126137
aF-0.38513513513513514
aF-0.033783783783783786
aF-1
aF-1
aF-1
aF-1
aF-0.17060810810810811
aF-1
aF-1
aF-0.36261261261261263
aF-1
aF-1
aF-1
aF-0.11805555555555555
aF-0.12698412698412698
aF-1
aF-0.23941798941798942
aF-0.052248677248677246
aF-0.22585978835978834
aF-0.027777777777777776
aF-0.035052910052910051
aF-0.54126984126984123
aF-1
aF-1
aF-1
aF-0.1607142857142857
aF-1
aF-0.34589947089947087
aF-0.40740740740740738
aF-0.25099304865938432
aF-0.27979145978152931
aF-0.051886792452830184
aF-0.26390268123138033
aF-0.13155136268343814
aF-0.20073375262054508
aF-0.11215932914046121
aF-0.27148846960167716
aF-0.11918238993710691
aF-0.064150943396226415
aF-0.11918238993710691
aF-0.11918238993710691
aF-0.14465408805031446
aF-0.14465408805031446
aF-0.14276729559748427
aF-0.14292452830188679
aF-0.36835748792270528
aF-1
aF-0.40096618357487929
aF-1
aF-1
aF-0.53083333333333338
aF-1
aF-1
aF-1
aF-1
aF-0.47456140350877196
aF-1
aF-1
aF-0.42280701754385969
aF-1
aF-0.30584795321637431
aF-0.062374245472837028
aF-0.062374245472837028
aF-0.062374245472837028
aF-0.027665995975855132
aF-1
aF-0.24295774647887325
aF-1
aF-1
aF-0.035211267605633804
aF-0.036971830985915492
aF-0.027816901408450705
aF-0.0397887323943662
aF-0.065988523735002608
aF-0.065858111632759522
aF-0.065988523735002608
aF-0.030646844027125721
aF-1
aF-1
aF-0.30139372822299654
aF-1
aF-0.36181918210159542
aF-0.081239684577296897
aF-0.33761232349165599
aF-0.03961122317990097
aF-1
aF-1
aF-1
aF-0.16681184668989546
aF-0.28303403913160008
aF-0.27820959528276601
aF-0.28303403913160008
aF-1
aF-0.61298076923076927
aF-1
aF-0.01201923076923077
aF-0.01201923076923077
aF-0.34679487179487184
aF-0.15705128205128205
aF-0.330448717948718
aF-0.35192307692307695
aF-0.32805429864253394
aF-0.2949660633484163
aF-0.18382352941176472
aF-0.31052036199095029
aF-0.1462912087912088
aF-0.019230769230769232
aF-1
aF-0.52609890109890112
aF-0.35999999999999999
aF-0.3638095238095238
aF-0.3619047619047619
aF-0.3619047619047619
aF-0.20799999999999999
aF-0.23314285714285712
aF-0.08495238095238096
aF-0.10933333333333332
aF-0.23925465838509316
aF-1
aF-0.11751552795031056
aF-0.1093167701863354
aF-0.23057142857142857
aF-0.29971428571428571
aF-0.025714285714285714
aF-0.27742857142857141
aF-1
aF-1
aF-0.21324786324786327
aF-0.12749287749287749
aF-0.011904761904761906
aF-0.011904761904761906
aF-0.011904761904761906
aF-0.011294261294261296
aF-1
aF-0.061111111111111123
aF-0.062678062678062682
aF-0.062678062678062682
aF-0.077965395038565768
aF-1
aF-0.31279966645820306
aF-0.14008755472170109
aF-0.18451612903225809
aF-0.17806451612903226
aF-1
aF-0.24903225806451615
aF-0.22258064516129034
aF-0.044516129032258066
aF-0.43548387096774194
aF-0.21935483870967742
aF-0.022580645161290321
aF-0.1064516129032258
aF-0.022580645161290321
aF-0.067741935483870974
aF-0.29103942652329751
aF-0.43870967741935485
aF-0.31899641577060933
aF-1
aF-1
aF-1
aF-1
aF-0.22254335260115607
aF-0.19942196531791906
aF-0.19942196531791906
aF-0.15317919075144507
aF-0.19942196531791906
aF-1
aF-0.2119460500963391
aF-0.12524084778420039
aF-0.44315992292870904
aF-1
aF-1
aF-1
aF-1
aF-1
aF-1
aF-1
aF-1
aF-0.30608974358974356
aF-0.42467948717948717
aF-1
aF-0.35657051282051283
aF-0.45512820512820512
aF-1
aF-1
aF-0.1641025641025641
aF-1
aF-1
aF-1
aF-0.39010989010989006
a.