(lp1
F15.5392118158759
aF14.662191613855697
aF14.76136564244149
aF14.534329301589359
aF9.8497559543999191
aF9.4477107773547413
aF9.6102107773547409
aF9.9798624706906445
aF13.394182769414964
aF13.621814348362333
aF14.027697762333981
aF13.673693433329653
aF7.9192788162989389
aF7.9192788162989389
aF9.5418722746122153
aF7.0544146170307149
aF7.8710812836973814
aF8.760600871436786
aF7.8710812836973814
aF7.8710812836973814
aF15.121440698104781
aF9.3073734401133787
aF9.9009191917473665
aF10.928922621066585
aF15.065731336087373
aF9.364998271422424
aF9.6354876075077343
aF15.292610421054691
aF12.818449554401568
aF13.642517050373087
aF17.894308310368682
aF14.656009113865149
aF11.24343460117454
aF6.1227296353457348
aF6.1227296353457348
aF6.1227296353457348
aF5.5416566448687217
aF5.5416566448687217
aF6.2104280480441476
aF5.5416566448687217
aF9.0287770365169742
aF12.565239490471686
aF9.0287770365169742
aF9.6633008460407854
aF5.5416566448687217
aF5.5416566448687217
aF5.5416566448687217
aF5.5416566448687217
aF10.319650052389992
aF11.353395778627975
aF12.963979433019681
aF14.905110421054692
aF14.804316155980239
aF11.866137569001346
aF12.593048974589223
aF11.528395778627976
aF11.490636315868514
aF10.980052047196009
aF12.336271236503434
aF12.870069176609425
aF8.5763966984168238
aF8.5763966984168238
aF8.5763966984168238
aF8.5763966984168238
aF13.285435857572077
aF13.01210034805236
aF12.968336290472511
aF12.369494446042433
aF11.013505990053975
aF12.284631106767328
aF11.645450434498422
aF12.66436742222346
aF13.533018215874252
aF18.582394097990072
aF15.505534485294547
aF13.962900730160788
aF15.386580236928532
aF15.106636058300142
aF14.215031055975325
aF15.717836072596135
aF11.769348861492825
aF10.986015528159491
aF10.986015528159491
aF13.501361087313098
aF11.426852468996431
aF11.426852468996431
aF12.065825892373878
aF13.120769456721469
aF5.6130852162972928
aF4.779751882963958
aF4.779751882963958
aF4.779751882963958
aF11.571296913440877
aF11.081027357575344
aF10.273557256297195
aF13.25236990391789
aF16.175642563490861
aF15.843362343710639
aF13.159270356406576
aF17.493980451952591
aF11.497382347614545
aF12.468053343285542
aF11.921787109519308
aF11.861918688466675
aF18.897368421052629
aF17.985051266243214
aF18.653822669418641
aF18.582394097990072
aF10.172124375452549
aF10.514179031322994
aF9.9363167190566575
aF9.8170184734426229
aF11.8501962004284
aF10.54522478295698
aF9.1524982714224219
aF9.1524982714224219
aF11.232036174180138
aF11.232036174180138
aF11.605484947628911
aF11.394373836517801
aF9.4234727218086363
aF9.7901393884753034
aF9.4234727218086363
aF9.4234727218086363
aF11.24343460117454
aF11.24343460117454
aF11.24343460117454
aF11.24343460117454
aF14.219845174605233
aF12.855690091642105
aF12.428669889621903
aF12.428669889621903
aF11.52025263608081
aF11.52025263608081
aF11.737263299995499
aF12.016773963910186
aF11.720252021800009
aF10.607380785708958
aF10.482380785708958
aF7.7248343718544934
aF12.77748824962447
aF12.267964440100661
aF13.800219070575107
aF13.800219070575107
aF4.9749899782020535
aF4.9749899782020535
aF5.2733416265537016
aF6.3680727726006365
aF13.045831121063319
aF13.112497787729986
aF12.983331121063319
aF13.771202971435168
aF7.8962629432830651
aF7.8962629432830651
aF8.9100740289981779
aF7.8962629432830651
aF12.934720009952208
aF12.934720009952208
aF15.189973760329798
aF12.934720009952208
aF13.55912415757617
aF13.778204097244343
aF13.845518215874252
aF12.626135435771658
aF14.54231863767467
aF13.845518215874252
aF13.645518215874251
aF18.178597017877205
aF-13.017259692491891
aF-13.175446826994813
aF-14.077697762333981
aF-13.559658345610357
aF17.056205726677867
aF12.392964440100661
aF12.165186662322885
aF12.432792564332813
aF4.695479314287363
aF3.3665110603191093
aF5.8615574741735728
aF3.3665110603191093
aF6.9190120079438957
aF6.421539159155258
aF6.546539159155258
aF7.2915010385211607
aF8.1529561468802942
aF9.9840291373573109
aF8.384641128565276
aF11.081967207199405
aF5.7733416265537025
aF7.2932189714310462
aF5.6900082932203695
aF5.2981108932347336
aF16.144406621070708
aF16.144406621070708
aF16.144406621070708
aF17.149289135357247
aF9.5345838329197488
aF9.5345838329197488
aF13.42066441470466
aF11.177456543284716
aF7.8839252809454026
aF7.8839252809454026
aF7.8839252809454026
aF9.4867708400990143
aF6.9210812836973812
aF8.5398526868728108
aF6.9210812836973812
aF6.9210812836973812
aF11.072945265089229
aF11.072945265089229
aF11.072945265089229
aF11.072945265089229
aF9.6928605836887591
aF9.6928605836887591
aF9.6928605836887591
aF9.6928605836887591
aF12.697131106767328
aF12.768559678195899
aF15.866686138938462
aF12.820596019048033
aF13.822142206778425
aF13.822142206778425
aF15.336548530588777
aF12.507735882968081
aF11.041742257570432
aF8.9440026004267512
aF8.9440026004267512
aF8.9440026004267512
aF16.253246289314401
aF14.559297595249607
aF14.559297595249607
aF14.559297595249607
aF14.926023821379859
aF13.823547234499246
aF14.908786891642928
aF14.908786891642928
aF12.864800936937158
aF12.864800936937158
aF14.237892508248544
aF12.967432515884528
aF15.605765218613517
aF13.621683717039753
aF13.093076827713048
aF13.093076827713048
aF8.663807795231941
aF10.653355236095175
aF8.663807795231941
aF12.01747424402223
aF10.942284667516866
aF13.08455330359355
aF10.942284667516866
aF10.942284667516866
aF11.168665334493509
aF12.431906157138354
aF10.708408924237098
aF10.039637521061671
aF8.1735300174541639
aF8.1735300174541639
aF8.1735300174541639
aF8.509641128565276
aF9.1231854059253443
aF10.200436341264515
aF10.870313686141859
aF7.8248343718544939
aF10.876291042119217
aF9.0618847183088675
aF9.9417672325954065
aF9.2788953822235545
aF13.444829607097407
aF13.58018822422847
aF13.141602790054801
aF14.741014283274342
aF11.276852468996433
aF10.691414399154338
aF12.455820722964686
aF10.691414399154338
aF11.278500820644783
aF7.3201775091093966
aF8.5898526868728116
aF6.4673724924885914
aF15.618265218613516
aF13.540991413127633
aF13.540991413127633
aF14.06970842624867
aF13.818509728145948
aF14.164687058727305
aF13.818509728145948
aF14.977927881372151
aF13.864598155542424
aF13.864598155542424
aF13.864598155542424
aF14.744480669828965
aF15.279948083392355
aF15.279948083392355
aF15.279948083392355
aF15.279948083392355
aF13.698547234499246
aF12.10463024677421
aF12.10463024677421
aF12.10463024677421
aF10.333769674597848
aF9.433418331754245
aF9.5936747420106556
aF10.33368514010929
aF10.461547452375626
aF10.461547452375626
aF9.1471411285652788
aF12.465781900418122
aF12.220685536513711
aF12.220685536513711
aF13.119725179361401
aF12.220685536513711
aF10.433769674597848
aF10.433769674597848
aF10.544880785708958
aF10.433769674597848
aF8.6076252952413927
aF8.6576252952413935
aF10.372031619051745
aF8.6076252952413927
aF15.861684664664539
aF13.503491413127632
aF13.719275525815773
aF12.425953776185974
aF13.464602524238744
aF13.715704097244343
aF12.617871069419055
aF13.316068602020614
aF12.122580146032158
aF10.906278598422562
aF10.282380785708959
aF11.363505990053977
aF8.223101485717585
aF7.8692788162989391
aF8.7307617777819022
aF9.1392406956648458
aF13.5970450816813
aF13.5970450816813
aF14.415816484856732
aF13.5970450816813
aF11.813833848470068
aF11.813833848470068
aF15.793868678620999
aF11.813833848470068
aF14.922570738515008
aF13.940213901165913
aF13.940213901165913
aF13.940213901165913
aF12.747126024989804
aF13.331398593666394
aF12.747126024989804
aF12.747126024989804
aF11.537919588151786
aF11.58236403259623
aF12.995210293662305
aF12.782250154386375
aF12.43253685598887
aF14.434668831340655
aF13.063119650387453
aF14.225911433767468
aF14.119708426248671
aF10.456027357575344
aF10.302618266666252
aF10.824617101165087
aF14.434297595249607
aF14.75476642380667
aF14.434297595249607
aF14.75476642380667
aF17.349001819473958
aF17.73409589206803
aF17.73409589206803
aF18.017773222649385
aF16.421042382110496
aF13.739962660318694
aF14.906636058300142
aF13.98672700708304
aF15.09518094994101
aF14.467213595657864
aF14.310070738515007
aF14.464970005914276
aF17.790606821798775
aF14.874201417777268
aF16.225261262645169
aF16.386372373756277
aF8.3198901932261045
aF8.3198901932261045
aF8.3198901932261045
aF9.6073734401133777
aF11.171864298412284
aF10.203067920211883
aF10.036401253545217
aF11.171864298412284
aF10.375205607945547
aF10.375205607945547
aF12.603585355133342
aF12.128872671016634
aF15.741876329724629
aF13.665213901165913
aF17.037182206338557
aF12.611245647197661
aF10.874136355560507
aF10.874136355560507
aF10.874136355560507
aF10.874136355560507
aF11.029404595232769
aF13.731294165930388
aF11.029404595232769
aF11.029404595232769
aF9.1538026258227507
aF7.6393963020124005
aF9.3371359591560843
aF7.6393963020124005
aF14.993999309943579
aF14.993999309943579
aF15.998881824230121
aF14.993999309943579
aF11.719604569836768
aF10.356279212703363
aF10.356279212703363
aF10.356279212703363
aF12.872220009952208
aF8.390112149632273
aF11.18679807894204
aF10.247945879370031
aF13.443534088890127
aF10.978249579797566
aF14.285884896836908
aF12.339481300433313
aF8.3600056333415456
aF9.4707877004316643
aF8.3600056333415456
aF13.892578100434136
aF12.768053343285542
aF12.768053343285542
aF14.042234103186114
aF12.768053343285542
aF12.864230673866896
aF15.137195982552019
aF12.864230673866896
aF12.864230673866896
aF12.994578980530994
aF12.994578980530994
aF13.41218488254092
aF12.994578980530994
aF9.1352363666605161
aF8.3386871857073075
aF8.3386871857073075
aF9.2422418611660095
aF9.9863167190566582
aF10.409668367408306
aF10.480113711537863
aF8.8952620435979579
aF7.9553538523739737
aF7.3774915401076377
aF9.0871359591560843
aF7.4274915401076376
aF11.827707169851132
aF9.852498271422423
aF11.616596058740022
aF10.289584692912866
aF11.698175998408196
aF11.948175998408196
aF11.698175998408196
aF10.403067920211884
aF14.89359426263451
aF15.051781397137432
aF14.89359426263451
aF17.602909023381162
aF12.924402549634747
aF14.072142206778427
aF12.924402549634747
aF13.203913213549436
aF7.7108248734409717
aF9.4752311972513219
aF7.7108248734409717
aF7.7108248734409717
aF8.1824790964109848
aF9.0623616106975255
aF8.1824790964109848
aF8.1824790964109848
aF15.321035650795709
aF16.232664196828285
aF15.273849503609563
aF15.399691613855696
aF9.4892406956648472
aF7.3060629686790666
aF7.3060629686790666
aF7.3060629686790666
aF14.269950216622039
aF14.41731863767467
aF16.199521054281117
aF15.731724961485023
aF8.2918450357691817
aF8.2918450357691817
aF8.2918450357691817
aF8.2918450357691817
aF9.704518473442624
aF11.669520035348208
aF10.007745290485229
aF9.9363167190566575
aF12.304043844872018
aF12.650221175453373
aF12.798572823805021
aF13.451783502015701
aF17.901717932909886
aF17.901717932909886
aF17.901717932909886
aF18.670489336085307
aF15.902651051219166
aF15.124529276193361
aF16.49607845714657
aF15.289660855140728
aF12.147633588461762
aF12.147633588461762
aF12.147633588461762
aF12.147633588461762
aF9.5763966984168238
aF9.922574028998179
aF9.5763966984168238
aF9.5763966984168238
aF14.088298169838415
aF15.272201151961212
aF15.334847350791623
aF15.334847350791623
aF5.7003618285739037
aF6.7393963020124001
aF7.5672586142787361
aF5.7003618285739037
aF8.5596411285652749
aF8.6221411285652749
aF8.5596411285652749
aF10.79522478295698
aF6.3104280480441473
aF8.7204692924894172
aF5.964250717462793
aF6.6893963020124003
aF11.697010497242694
aF11.647010497242695
aF12.315781900418122
aF11.647010497242695
aF6.4673724924885914
aF6.667967730583829
aF8.4401121496322737
aF8.390112149632273
aF16.862692909945231
aF16.862692909945231
aF16.862692909945231
aF17.357221888878236
aF13.83126919090541
aF14.165585751537762
aF13.587723439271423
aF12.649653790481965
aF14.265626294070563
aF14.048020392060637
aF16.357894930147253
aF14.432292960737231
aF12.641801202753214
aF10.803783767831755
aF10.642328659472623
aF12.744432781700583
aF11.142328659472621
aF10.842328659472622
aF13.286617497569509
aF10.842328659472622
aF9.2670184734426222
aF9.7615474523756269
aF9.2670184734426222
aF9.2670184734426222
aF7.2359454829656054
aF6.2608248734409724
aF11.737963580107543
aF5.9798724924885915
aF15.182940412700471
aF18.109293690485643
aF19.103822669418641
aF15.038443754388025
aF8.7731008714367835
aF8.7731008714367835
aF10.502481518309693
aF9.3252056079455468
aF12.768053343285542
aF11.515741357885322
aF12.734720009952207
aF13.392457490909504
aF11.084708909941108
aF13.913521557561804
aF11.084708909941108
aF11.084708909941108
aF9.9045184734426233
aF10.506279212703362
aF9.9045184734426233
aF9.9045184734426233
aF10.351542282966433
aF12.255553343285541
aF12.535064007200228
aF10.666904595232769
aF9.1588835528077031
aF7.5026121496322729
aF9.208883552807702
aF7.5026121496322729
aF13.481880567832578
aF14.292318637674672
aF16.259587273751361
aF14.292318637674672
aF12.545596019048032
aF12.829524590476604
aF12.545596019048032
aF12.545596019048032
aF12.407302368254381
aF13.701021557561804
aF12.094802368254381
aF11.936615233751455
aF8.8217275500557228
aF8.1638077952319428
aF9.4009631837031229
aF9.0721411285652778
aF14.644950216622039
aF13.924340271012094
aF15.167318023393872
aF13.924340271012094
aF13.010080146032159
aF12.282792564332812
aF13.010080146032159
aF11.538996186132406
aF6.6532241408402388
aF6.6532241408402388
aF8.9574585888827389
aF7.1111438956640187
aF8.4524659508018622
aF8.7857992841351962
aF8.4524659508018622
aF11.864611931755894
aF10.227456543284717
aF9.9905517813799545
aF9.4799675127074519
aF9.4799675127074519
aF8.7413026258227511
aF7.7839252809454029
aF7.7214252809454029
aF7.7214252809454029
aF8.3600056333415456
aF7.325733064664953
aF7.4214252809454031
aF6.7441332317493297
aF7.3915010385211612
aF8.577612149632273
aF6.936411275343163
aF7.2486438956640189
aF7.2932189714310462
aF7.2932189714310462
aF8.6076252952413927
aF7.2932189714310462
aF10.701542282966432
aF12.211918688466675
aF11.229404595232769
aF11.8794840479438
aF13.571275791631829
aF11.65425839640236
aF11.65425839640236
aF11.65425839640236
aF10.353395778627977
aF10.353395778627977
aF12.695664414704662
aF10.353395778627977
aF15.154008848049095
aF13.5017835020157
aF15.195671146019439
aF13.604415080963069
aF9.4742458650740389
aF10.495168101592252
aF12.294458371006357
aF11.852342665074863
aF9.3379363412645144
aF9.3379363412645144
aF13.223401035668838
aF9.3379363412645144
aF15.121035650795708
aF16.834032578188928
aF15.121035650795708
aF15.121035650795708
aF14.837702317462375
aF15.241763942112236
aF14.837702317462375
aF16.039807053971142
aF13.190332246872496
aF13.131508717460731
aF15.770439798419671
aF13.131508717460731
aF12.14568553651371
aF14.439974374610594
aF12.925568050800248
aF13.660091860324057
aF12.972815248047446
aF11.561040503184467
aF11.561040503184467
aF11.561040503184467
aF9.9167260757818045
aF9.54742783016777
aF9.6500594091151388
aF10.129112811852751
aF12.138991104354883
aF10.840827382971346
aF10.840827382971346
aF12.907762507530309
aF10.469880785708959
aF11.758529533761731
aF10.030113711537862
aF9.892018473442624
aF10.462446145186084
aF6.6680727726006364
aF9.0500600233959378
aF8.4091509324868454
aF12.237780734916957
aF15.260296390056451
aF12.237780734916957
aF12.300280734916957
aF9.4538026258227514
aF8.1859454829656055
aF8.1859454829656055
aF8.1859454829656055
aF11.239955929003916
aF11.239955929003916
aF11.239955929003916
aF11.908727332179346
aF7.9602568741887625
aF8.9875078095279335
aF7.9602568741887625
aF7.9602568741887625
aF9.1864268428509934
aF7.4220205190406414
aF7.4220205190406414
aF7.4220205190406414
aF13.592776513132549
aF13.440144934185181
aF13.440144934185181
aF13.440144934185181
aF13.919975805927816
aF13.66079599365203
aF15.255878482542567
aF16.714097937666054
aF15.24816089483272
aF9.3679171662530809
aF9.7855230682630072
aF9.3679171662530809
aF9.5426659254058652
aF9.4204927769169267
aF8.8738945222304348
aF8.8738945222304348
aF11.436980352808527
aF11.508408924237099
aF14.082819803175838
aF11.849281940110114
aF15.566645596405657
aF14.792318637674672
aF15.566645596405657
aF17.861018968991107
aF17.398742356714497
aF16.306558255126369
aF18.278624871001032
aF16.251002699570812
aF14.220096415452451
aF15.506733183397266
aF13.642234103186114
aF14.220096415452451
aF11.778500820644783
aF11.778500820644783
aF13.931122992075002
aF11.778500820644783
aF12.817060665512679
aF12.817060665512679
aF12.817060665512679
aF12.817060665512679
aF8.8530935095176595
aF12.268580185724149
aF10.378214119042292
aF8.8530935095176595
aF9.4950791984073728
aF9.4950791984073728
aF9.4950791984073728
aF9.4950791984073728
aF10.120589287733251
aF10.120589287733251
aF12.418457471321249
aF10.120589287733251
aF5.8548724924885915
aF6.6274915401076386
aF5.8548724924885915
aF9.2791744761946013
aF6.3368441757760641
aF6.1939870329189217
aF6.5273203662522539
aF6.3153105623306862
aF9.5320367884609389
aF7.8842971313172541
aF7.8842971313172541
aF8.7697601761843256
aF12.821478573026559
aF11.023091463919638
aF10.60781368614186
aF10.054967512707451
aF14.786374478634537
aF10.076144843288807
aF12.148519995656217
aF13.725072871744695
aF10.432036788460939
aF18.070409883374278
aF12.234140910688897
aF11.046071261899435
aF7.6714252809454031
aF10.820840528580467
aF7.6714252809454031
aF7.6714252809454031
aF7.7877479503640483
aF8.4909586285747274
aF9.0252311972513208
aF14.600040594080841
aF11.719604569836768
aF11.719604569836768
aF12.545482755118975
aF11.719604569836768
aF9.2681561214842958
aF9.2681561214842958
aF9.2681561214842958
aF9.2681561214842958
aF15.275692513540807
aF15.275692513540807
aF15.526675740839826
aF15.275692513540807
aF14.367387604655406
aF14.152369289637091
aF14.152369289637091
aF14.152369289637091
aF6.9274915401076385
aF8.3368847183088644
aF8.3038026258227493
aF7.0044146170307151
aF11.569207130159143
aF11.569207130159143
aF11.569207130159143
aF11.569207130159143
aF7.0619903746064718
aF7.0619903746064718
aF8.4221411285652756
aF11.898317115461079
aF11.281027357575343
aF11.50795043449842
aF11.281027357575343
aF11.281027357575343
aF14.876566231326292
aF16.692730416298531
aF16.692730416298531
aF17.07757324804539
aF9.5398520725920104
aF11.299046838094824
aF9.5398520725920104
aF9.5398520725920104
aF18.284180426556588
aF17.638262558734699
aF18.166124871001031
aF18.847368421052629
aF16.448872373756277
aF16.754160549632687
aF17.217643776931705
aF16.000063464227551
aF10.06973458687855
aF11.774617101165088
aF10.06973458687855
aF10.853395778627977
aF13.610451996404008
aF14.181353725393972
aF15.583612268364588
aF14.181353725393972
aF10.339042282966433
aF8.0073740543941767
aF8.7047168861410356
aF11.869520035348209
aF14.474263082119117
aF16.293604134084006
aF15.311090040850102
aF14.753773746033804
aF7.0812886202205085
aF7.0812886202205085
aF7.0812886202205085
aF7.0812886202205085
aF9.669200398844362
aF9.9127901424341065
aF16.240430145190206
aF10.294734586878549
aF15.245889451965299
aF13.550478533334568
aF12.985703237251222
aF18.092627023818977
aF6.0602296353457348
aF6.0602296353457348
aF8.6579692924894172
aF6.0602296353457348
aF9.788531579359752
aF11.856258090894311
aF9.788531579359752
aF12.651893011529232
aF12.258529533761733
aF9.9595272503554249
aF12.202937903170099
aF11.278500820644783
aF10.250436341264516
aF10.250436341264516
aF10.896071261899435
aF10.250436341264516
aF9.1538026258227507
aF7.9619903746064722
aF10.158685140109291
aF17.915141643702018
aF15.969317717885833
aF15.288677627841709
aF14.208993526253584
aF17.195369340841481
aF13.997789658741668
aF17.548130979787327
aF13.868622992075002
aF17.106282653534976
aF13.848547234499245
aF14.334840005196041
aF13.848547234499245
aF13.848547234499245
aF18.014217932909883
aF14.706725575765823
aF10.5115829131309
aF10.5115829131309
aF10.890803022227173
aF9.2875923440164954
aF8.9512504995864148
aF10.04794587937003
aF7.2932189714310462
aF5.1954793142873648
aF5.1954793142873648
aF5.1954793142873648
aF10.177274269418231
aF11.757156783704771
aF10.177274269418231
aF10.177274269418231
aF10.04794587937003
aF8.7930633650834906
aF8.7930633650834906
aF8.7930633650834906
aF10.627456543284717
aF13.456034088890124
aF12.025196200428399
aF12.025196200428399
aF14.377348782108839
aF13.571008411952683
aF11.878585355133341
aF11.749642076190062
aF5.7400082932203693
aF5.7400082932203693
aF5.7400082932203693
aF5.7400082932203693
aF10.99343460117454
aF6.233548963076827
aF8.3312886202205085
aF8.3312886202205085
aF10.858081065821004
aF9.5606854059253443
aF12.350953776185975
aF10.012446145186084
aF13.745579265935303
aF13.745579265935303
aF15.059985589745649
aF13.745579265935303
aF16.238142563490861
aF15.912280517040578
aF14.929766423806671
aF14.929766423806671
aF13.115124997981034
aF13.807078366250192
aF14.036228894084928
aF13.790557898413933
aF14.567031321791379
aF14.567031321791379
aF14.657940412700469
aF14.567031321791379
aF11.405318855551052
aF11.814781615013812
aF13.098114334066347
aF13.031257476613513
aF11.671535868672089
aF11.671535868672089
aF11.671535868672089
aF11.671535868672089
aF10.982072249216211
aF11.735675998408196
aF10.982072249216211
aF11.524617101165086
aF11.635675998408196
aF12.327827779375767
aF9.7440026004267501
aF13.561193433329652
aF9.7737034551276061
aF10.119880785708959
aF9.7737034551276061
aF9.7737034551276061
aF13.089023424975437
aF10.039637521061671
aF9.704518473442624
aF14.330811315447535
aF14.400590920946957
aF14.400590920946957
aF14.456146476502512
aF15.349691613855697
aF9.6990474523756269
aF9.6990474523756269
aF9.6990474523756269
aF9.6990474523756269
aF13.699607693647939
aF14.260070738515008
aF12.878997748037996
aF15.917584831748918
aF9.6354876075077343
aF9.6354876075077343
aF9.6354876075077343
aF9.9290282773641945
aF12.959856758308771
aF14.474263082119117
aF12.959856758308771
aF11.323029799577785
aF11.099617101165087
aF11.099617101165087
aF12.718664720212706
aF14.472424539684598
aF9.698703455127605
aF9.698703455127605
aF9.6487034551276061
aF12.718664720212706
aF9.3892406956648475
aF8.1100056333415456
aF9.3892406956648475
aF13.327223705087482
aF9.1588835528077031
aF7.6248343718544946
aF7.0611438956640189
aF9.1521897349296744
aF8.9611961095320236
aF8.3778627761986879
aF8.3778627761986879
aF8.3778627761986879
aF14.483163800423858
aF13.822012146779947
aF14.210597580953616
aF13.822012146779947
aF16.696637620205735
aF13.795805531757543
aF15.120180949941009
aF16.232664196828285
aF10.308623475767439
aF12.741862867095065
aF17.996939889316049
aF12.004714781262768
aF14.947424539684597
aF14.947424539684597
aF16.8168595766119
aF14.947424539684597
aF13.545518215874251
aF11.356278598422563
aF10.482036788460938
aF17.877685635657773
aF13.697789658741669
aF14.192318637674672
aF16.42674413649646
aF16.42674413649646
aF12.441862867095065
aF16.343017732181821
aF16.343017732181821
aF16.887546711114823
aF10.545168101592251
aF10.712178765506939
aF10.545168101592251
aF10.545168101592251
aF11.149893931318083
aF12.613291438523635
aF10.783227264651416
aF10.783227264651416
aF10.409668367408306
aF9.0252311972513208
aF11.654630246774209
aF9.379028277364192
aF8.3013077952319421
aF10.908995326139289
aF8.6761454575696071
aF8.0842971313172534
aF9.8126005659287401
aF9.8126005659287401
aF9.8126005659287401
aF10.32212437545255
aF8.309150932486844
aF8.309150932486844
aF8.9378679456078842
aF8.309150932486844
aF9.8763350340749732
aF12.640214515446713
aF10.009478176622141
aF9.9318905896305285
aF7.3073740543941765
aF7.3073740543941765
aF7.3073740543941765
aF7.3073740543941765
aF9.600695804023978
aF9.600695804023978
aF9.600695804023978
aF9.600695804023978
aF11.868665334493508
aF9.8624461451860839
aF9.8624461451860839
aF10.69473458687855
aF6.7098856380977123
aF6.7098856380977123
aF6.7098856380977123
aF7.9619903746064722
aF7.5286570412731386
aF7.1380919476120699
aF6.1812613813774808
aF9.8387910421192171
a.