(lp1
F1.4792323567791599
aF1.5970153924355435
aF1.3457009641546374
aF1.4792323567791599
aF0.78608517621921448
aF0.90386821187559807
aF0.65255378359469196
aF0.78608517621921448
aF0.79850769621777151
aF0.916290731874155
aF1.2039728043259357
aF1.2039728043259357
aF0.81093021621632877
aF0.81093021621632877
aF1.0748957620507935
aF0.81093021621632877
aF0.40546510810816427
aF1.0986122886681093
aF0.40546510810816438
aF0.40546510810816438
aF2.6275347254414978
aF0.52324814376454787
aF0.70556970055850243
aF0.887891257352457
aF1.4927833901575149
aF0.45870962262697668
aF0.52324814376454776
aF1.8982484982656793
aF1.5040773967762737
aF1.845003983746867
aF3.2437208648653151
aF1.6863989535702284
aF1.2163953243244932
aF0.40546510810816438
aF0.40546510810816438
aF0.40546510810816438
aI0
aI0
aF0.22314355131420976
aI0
aI0
aF0.81093021621632877
aI0
aI0
aF0.40546510810816438
aF0.40546510810816438
aI0
aI0
aF1.1079375692520865
aF1.2414689618766093
aF1.2414689618766093
aF1.3060074830141801
aF2.0036090139235059
aF1.1110348086666668
aF1.0873182820493505
aF0.887891257352457
aF0.81093021621632877
aF0.6818531739411865
aF0.81093021621632877
aF0.78721368959901272
aF0.51879379341516751
aF0.51879379341516751
aF0.51879379341516751
aF0.62415430907299374
aF1.0778909658548572
aF0.89556940906090277
aF0.79020889340307643
aF0.79020889340307643
aF0.55164761828624587
aF0.73396917508020043
aF0.73396917508020043
aF0.70732123359730859
aF1.741395001127847
aF3.7030535071512993
aF1.0820146830387192
aF2.3392320018834676
aF1.1997977186951025
aF2.2806200994155361
aF1.6432047749049175
aF1.4004684141572539
aF1.045367774149297
aF1.045367774149297
aF1.045367774149297
aF1.6207319190528588
aF0.58778666490211895
aF0.58778666490211895
aF0.58778666490211895
aF0.77010822169607351
aF0.81093021621632877
aF0.40546510810816438
aF0.40546510810816438
aF0.40546510810816438
aF0.81093021621632877
aF0.44628710262841953
aF0.58778666490211895
aF1.2163953243244932
aF1.996986550650103
aF1.996986550650103
aF1.5915214425419386
aF2.4974312053970742
aF1.027349268646619
aF0.8938178760220965
aF0.8938178760220965
aF0.73966719619483812
aF2.2024039829551243
aF1.6427881950197012
aF1.4237683608893534
aF1.7114504333411344
aF1.0216512475319812
aF1.2039728043259359
aF0.73396917508020043
aF0.67512867505726704
aF0.89794159320595845
aF1.3397743454849975
aF0.89794159320595845
aF0.89794159320595845
aF0.68299480909592725
aF0.68299480909592725
aF1.0884599172040916
aF0.86716993453920455
aF0.49247648509779407
aF0.58778666490211895
aF0.40546510810816438
aF0.40546510810816438
aF1.1347513352839826
aF1.3578948865981926
aF1.1347513352839826
aF1.1347513352839826
aF1.7953139037526384
aF1.2199497588490769
aF1.4555158301618438
aF0.94469020639585322
aF1.1394342831883646
aF1.1507282898071234
aF1.544899391296529
aF1.4271163556401454
aF1.3614493211227761
aF0.89144569187704081
aF1.1270117631898078
aF0.7215466550816434
aF2.0024805005437072
aF2.0024805005437072
aF1.2323722788476339
aF1.3377327945054605
aF0.81093021621632877
aF0.81093021621632877
aF0.81093021621632877
aF1.0986122886681096
aF1.1518568031869219
aF1.3217558399823193
aF1.4395388756387029
aF1.3217558399823193
aF0.64103117942093135
aF0.64103117942093135
aF0.81093021621632866
aF0.92871325187271225
aF0.69314718055994518
aF0.69314718055994518
aF1.3862943611198904
aF0.62860865942237409
aF1.3987168811184478
aF0.99325177301028333
aF1.6218604324326575
aF0.87546873735389974
aF1.1270117631898076
aF1.1791277643288216
aF1.5324768712979719
aF1.9911864939249484
aF-0.98082925301172608
aF-1.3862943611198904
aF-1.3862943611198904
aF-1.0861897686695525
aF1.597015392435543
aF1.5324768712979722
aF0.78608517621921437
aF0.78608517621921437
aF0.44183275227903918
aF0.40546510810816438
aF0.72951482473082008
aF0.15415067982725836
aF0.44628710262841953
aF0.44628710262841953
aF0.44628710262841953
aF0.44628710262841953
aF0.38971675114002524
aF0.52324814376454787
aF0.67739882359180625
aF0.6002091849006761
aF0.44183275227903918
aF0.84729786038720356
aF0.44183275227903918
aF0.69314718055994518
aF2.0266136070462402
aF2.0266136070462402
aF2.0266136070462402
aF2.4320787151544043
aF0.83464674283364471
aF0.8991852639712159
aF0.8991852639712159
aF0.8991852639712159
aF0.22462393648464388
aF0.22462393648464388
aF0.22462393648464388
aF0.45288258846562424
aF0.47000362924573558
aF0.62415430907299396
aF0.47000362924573558
aF0.47000362924573558
aF0.53144491096872648
aF0.53144491096872648
aF0.53144491096872648
aF0.53144491096872648
aF0.46245203948177505
aF0.46245203948177505
aF0.46245203948177505
aF0.46245203948177505
aF1.0910606989041494
aF0.97327766324776577
aF2.5294710611630533
aF1.0910606989041494
aF1.4395388756387029
aF1.4395388756387029
aF1.8450039837468672
aF1.4395388756387029
aF1.1755733298042379
aF0.77010822169607351
aF0.77010822169607351
aF0.77010822169607351
aF2.7681343718904001
aF1.0453677741492973
aF1.0453677741492973
aF1.0453677741492973
aF1.3300546427970146
aF0.94830606130616624
aF0.94830606130616624
aF0.94830606130616624
aF0.9073820311753944
aF0.9073820311753944
aF1.0980023907840444
aF1.1837700970084166
aF1.8154759958453708
aF1.1223288152854256
aF1.1223288152854256
aF1.1223288152854256
aF0.98082925301172597
aF0.98082925301172597
aF0.98082925301172597
aF1.1409146683587987
aF0.65540685257709796
aF1.6264224841404995
aF0.65540685257709796
aF0.65540685257709796
aF1.0464962875290957
aF1.2288178443230504
aF1.0464962875290957
aF1.0464962875290957
aF0.62860865942237409
aF0.62860865942237409
aF0.62860865942237409
aF0.62860865942237409
aF0.57536414490356169
aF0.57536414490356169
aF0.56407013828480301
aF0.30010459245033805
aF0.91629073187415488
aF0.62860865942237409
aF1.0340737675305385
aF1.0340737675305385
aF0.94000725849147082
aF0.94000725849147082
aF0.94000725849147082
aF1.045367774149297
aF1.6626824269529126
aF1.2572173188447482
aF1.6626824269529126
aF1.2572173188447482
aF1.2572173188447482
aF0.85175221073658391
aF0.73396917508020043
aF0.73396917508020043
aF2.1564025828159639
aF1.240111850941809
aF1.6455769590499734
aF1.6455769590499734
aF1.5040773967762739
aF1.7917594692280547
aF1.5040773967762739
aF1.7917594692280547
aF1.3987168811184478
aF1.3987168811184478
aF1.3987168811184478
aF1.9740810260220094
aF1.3987168811184478
aF1.3987168811184478
aF1.3987168811184478
aF1.3987168811184478
aF1.6863989535702286
aF0.99325177301028322
aF0.99325177301028322
aF1.1110348086666668
aF1.3217558399823193
aF0.81093021621632877
aF0.98082925301172597
aF0.81093021621632877
aF0.66033397091365431
aF0.63216309394695813
aF0.66033397091365431
aF1.6693341008920763
aF0.86304621735534259
aF0.86304621735534259
aF1.7917594692280547
aF0.86304621735534259
aF0.85686731140335426
aF0.52551017544891176
aF0.72951482473082008
aF0.52551017544891176
aF0.40546510810816438
aF0.36464311358790918
aF0.36464311358790918
aF0.40546510810816438
aF2.1643330218067582
aF1.1525818584564462
aF1.7403685233585655
aF1.0007013271637271
aF1.4353212396944992
aF1.2862856605340116
aF1.1321349807067533
aF1.1555992200417202
aF1.0649956778691245
aF1.2881392291833342
aF0.97101563156340154
aF1.4396891273105352
aF0.57981849525294216
aF0.5263298103019558
aF0.51082562376599061
aF0.6203098566076789
aF0.58778666490211895
aF0.53866586756716861
aF0.73103776021462452
aF0.53866586756716861
aF0.98082925301172597
aF0.98082925301172597
aF2.3671236141316161
aF0.98082925301172597
aF2.44146018384034
aF1.1292737948741718
aF1.1292737948741718
aF1.1292737948741718
aF0.72974342228582212
aF0.72974342228582212
aF0.72974342228582212
aF0.72974342228582212
aF1.6218604324326575
aF1.6218604324326575
aF1.6739764335716711
aF2.1972245773362191
aF1.2163953243244929
aF1.7917594692280547
aF1.3862943611198904
aF1.6218604324326575
aF2.2384631517416906
aF1.5610643281498846
aF1.5610643281498846
aF1.5610643281498846
aF1.6615539135731139
aF1.5486418081513271
aF1.6615539135731139
aF1.6615539135731139
aF1.811962176545574
aF1.8483298207164489
aF1.811962176545574
aF1.6296406197516196
aF1.2639196599474571
aF0.87732230600322259
aF1.0209040344812466
aF0.7350755306787885
aF0.88922621050604689
aF0.8773223060032227
aF0.98268282166104892
aF0.80406840216573994
aF1.349179503898281
aF0.90809396466997638
aF1.0821167186492358
aF1.1386870701376299
aF0.13798574297390284
aF0.13798574297390284
aF0.13798574297390284
aF0.17435338714477777
aF0.97708683615692782
aF1.188224447357797
aF0.60043778245567792
aF0.57162172804876343
aF0.46480938647928388
aF0.52852520086539156
aF0.46480938647928388
aF0.75249145893106473
aF1.6510826137058185
aF1.2314037888755607
aF1.8052332935330768
aF0.597518072352343
aF0.81093021621632877
aF0.81093021621632877
aF0.81093021621632877
aF0.81093021621632877
aF0.99325177301028333
aF1.1631508098056806
aF0.73396917508020043
aF0.99325177301028333
aF1.1755733298042379
aF0.99325177301028333
aF1.2809338454620642
aF0.99325177301028333
aF1.1631508098056806
aF1.1631508098056806
aF1.5686159179138448
aF1.568615917913845
aF0.81093021621632877
aF0.40546510810816438
aF0.40546510810816438
aF0.40546510810816438
aF2.3150076129926029
aF0.47000362924573547
aF1.045367774149297
aF0.58778666490211895
aF2.3150076129926025
aF1.9503644994046934
aF1.8971199848858809
aF1.6218604324326575
aF0.8517522107365838
aF1.4271163556401454
aF0.8517522107365838
aF1.8325814637483098
aF0.65307239909042503
aF0.65307239909042503
aF1.0177155126783342
aF0.65307239909042503
aF1.0918877897841901
aF1.2742093465781448
aF1.0918877897841901
aF1.0918877897841901
aF0.94830606130616624
aF0.94830606130616624
aF1.1024567411334247
aF0.94830606130616624
aF0.78845736036427017
aF0.6141039732194925
aF0.6141039732194925
aF0.71946448887731862
aF1.0766333819493346
aF0.85348983063512462
aF0.85348983063512462
aF0.85348983063512462
aF0.81093021621632877
aF0.81093021621632877
aF0.91629073187415511
aF0.81093021621632877
aF0.55368105241560794
aF0.47957308026188616
aF0.47957308026188616
aF0.47957308026188616
aF0.5739659458848072
aF0.60725192351827373
aF0.52387031457922273
aF1.0769291961801559
aF0.76313955237998032
aF0.81065906834795676
aF0.71534888854363177
aF1.4384480929172869
aF0.81093021621632877
aF1.2163953243244932
aF0.81093021621632877
aF0.99325177301028333
aF0.89097292388986515
aF1.2964380319980295
aF0.89097292388986515
aF0.89097292388986515
aF0.16008541534707271
aF0.56555052345523715
aF0.40546510810816438
aF0.16008541534707271
aF1.1362161475772448
aF1.4238982200290256
aF1.0451236037171234
aF1.3185377043711994
aF0.54386743096728363
aF0.44628710262841953
aF0.44628710262841953
aF0.44628710262841953
aF0.77442610297174186
aF1.0420419371797154
aF1.8640219895826291
aF1.1804442600388345
aF0.81093021621632877
aF0.58778666490211906
aF0.31585294941847719
aF0.40546510810816438
aF0.98082925301172608
aF1.1192315758708453
aF1.0986122886681096
aF1.0986122886681096
aF1.0986122886681096
aF1.5040773967762739
aF1.5040773967762739
aF1.2527629684953678
aF2.4121713614462501
aF2.4121713614462501
aF2.4121713614462501
aF2.5663220412735082
aF1.9774068629915911
aF1.6533571463689354
aF1.9410392188207164
aF1.7868885389934579
aF0.47957308026188622
aF0.69314718055994518
aF0.88503818837005066
aF0.47957308026188622
aF0.62778902456932983
aF0.47957308026188622
aF0.43875108574163102
aF0.43875108574163102
aF0.79642553001344696
aF0.79642553001344707
aF0.70111535020912208
aF0.70111535020912208
aI0
aF0.40546510810816438
aF0.44183275227903918
aI0
aF0.40546510810816438
aF0.40546510810816438
aF0.40546510810816438
aF0.69314718055994518
aF1.0986122886681096
aF1.7917594692280547
aF0.69314718055994518
aF1.0986122886681096
aF0.40546510810816438
aF0.40546510810816438
aF0.81093021621632877
aF0.40546510810816438
aF0.69314718055994518
aF0.69314718055994518
aF0.87546873735389974
aF0.69314718055994518
aF2.5505736843053701
aF2.1451085761972055
aF2.1451085761972055
aF2.5505736843053701
aF1.1236859262202257
aF1.3581234841531939
aF1.0704414117014132
aF1.0704414117014132
aF1.8044105867816136
aF1.3989454786734492
aF2.7331238386543255
aF1.8044105867816136
aF1.8325814637483098
aF1.6739764335716711
aF1.3862943611198904
aF2.1202635362000906
aF0.64435701639051313
aF0.64435701639051313
aF0.95265837604502979
aF0.64435701639051313
aF0.40546510810816438
aF0.61244372256901869
aF0.40546510810816438
aF0.40546510810816438
aF0.98082925301172608
aF0.40546510810816438
aF0.98082925301172608
aF0.40546510810816438
aF1.0059028905638423
aF2.1861185530476752
aF2.7457343409830979
aF1.1112634062216684
aF0.57536414490356169
aF0.62860865942237409
aF0.6369074622370694
aF0.71334988787746467
aF0.7453652173094758
aF0.6369074622370694
aF1.2163953243244932
aF1.0116009116784799
aF0.58551651636757984
aF1.4478376784533982
aF0.58551651636757984
aF0.81922901903102407
aF0.59608546771681437
aF1.0015505758249788
aF0.59608546771681437
aF0.59608546771681437
aF0.59598343210629756
aF1.1068090558722883
aF1.5122741639804527
aF1.0014485402144619
aF1.0986122886681096
aF0.81093021621632877
aF1.5040773967762739
aF0.81093021621632877
aF0.71376646776268116
aF0.71376646776268116
aF1.1352085303939865
aF0.71376646776268116
aF0.66165046662366711
aF0.62528282245279221
aF0.66165046662366711
aF0.79518185924818974
aF0.73314954022715617
aF0.94672364052521507
aF0.73314954022715617
aF0.73314954022715617
aF0.40546510810816438
aF0.40546510810816438
aF0.44183275227903918
aF0.40546510810816438
aF0.96734292772795105
aF0.92140583254092534
aF1.2090879049927064
aF0.92140583254092534
aF0.5945030469358632
aF0.65904156807343428
aF0.5945030469358632
aF0.5945030469358632
aF0.69314718055994518
aF0.69314718055994518
aF1.3862943611198904
aF1.0986122886681096
aF0.40546510810816438
aF1.0340737675305385
aF0.40546510810816438
aF1.1676051601550612
aF1.5198257537444129
aF1.1143606456362487
aF1.1143606456362487
aF1.5198257537444131
aF1.1143606456362485
aF0.98082925301172597
aF0.70889553752808432
aF0.70889553752808432
aF0.81093021621632877
aF0.81093021621632877
aF0.81093021621632877
aF0.81093021621632877
aF0.69314718055994518
aF0.69314718055994518
aF0.69314718055994518
aF0.69314718055994518
aF1.2163953243244932
aF1.2163953243244932
aF1.4395388756387029
aF1.2163953243244932
aF0.8517522107365838
aF0.8517522107365838
aF0.8517522107365838
aF0.8517522107365838
aF1.645805556604975
aF1.1349799328389845
aF1.1349799328389845
aF1.1349799328389845
aF0.62860865942237409
aF0.62860865942237409
aF1.0748957620507935
aF0.62860865942237409
aF2.3344983868155396
aF1.5768126851180235
aF1.8644947575698043
aF1.5768126851180235
aF0.58778666490211895
aF1.065987061352033
aF0.87546873735389974
aF0.58778666490211895
aF0.49247648509779407
aF0.49247648509779407
aF1.6372781562352783
aF0.49247648509779407
aF2.1031066998501808
aF2.2283392896600076
aF1.6976415917420162
aF2.1031066998501808
aF0.97405338568083544
aF1.0007013271637271
aF1.061064762670465
aF1.7846529687316459
aF0.86716993453920455
aF0.46170482643104022
aF0.80975033438955901
aF0.46170482643104022
aF1.5040773967762739
aF1.8199303461947511
aF1.6863989535702286
aF1.6376087894007967
aF1.2696398388433054
aF0.86417473073514117
aF0.86417473073514117
aF0.86417473073514117
aF0.99325177301028333
aF0.99325177301028333
aF0.99325177301028333
aF1.126783165634806
aF0.8517522107365838
aF0.44628710262841953
aF0.44628710262841953
aF1.2572173188447482
aF0.86304621735534259
aF0.83464674283364459
aF0.69314718055994518
aF0.69314718055994518
aF1.0748957620507935
aF0.57536414490356169
aF1.2572173188447482
aF1.2572173188447482
aF1.1223288152854254
aF1.4992064665416771
aF1.1223288152854254
aF1.2809338454620642
aF0.80832943451627126
aF0.67479804189174863
aF0.67479804189174863
aF0.67479804189174863
aF1.3696967554905
aF1.3696967554905
aF1.3696967554905
aF1.6573788279422808
aF0.6931471805599454
aF1.0986122886681098
aF0.6931471805599454
aF0.6931471805599454
aF0.91629073187415511
aF0.51082562376599072
aF0.51082562376599072
aF0.51082562376599072
aF1.3596464196369988
aF1.0986122886681098
aF1.0986122886681098
aF1.0986122886681098
aF1.3454567937224631
aF0.74501901126678538
aF1.4306146020627701
aF2.9557299138867794
aF1.6218604324326575
aF0.40546510810816438
aF0.81093021621632877
aF0.40546510810816438
aF1.1755733298042379
aF0.77010822169607351
aF0.77010822169607351
aF0.77010822169607351
aF0.664976303593249
aF0.664976303593249
aF0.86280204692316875
aF0.664976303593249
aF0.89794159320595845
aF0.89794159320595845
aF0.89794159320595845
aF3.1235656450638758
aF2.7516388018715263
aF2.5693172450775719
aF3.0393208743233071
aF2.4823058680879422
aF1.9865035460205669
aF3.6953753554428537
aF2.0735149230101961
aF2.0735149230101961
aF1.4369380939386454
aF1.4369380939386454
aF2.3348796871446038
aF1.4369380939386454
aF1.2335860781239518
aF1.2335860781239518
aF1.2335860781239518
aF1.2335860781239518
aF0.84136312486738896
aF0.91629073187415488
aF0.84136312486738896
aF0.84136312486738896
aF0.55368105241560805
aF0.55368105241560805
aF0.55368105241560805
aF0.55368105241560805
aF0.55368105241560805
aF0.55368105241560805
aF1.2031531694728916
aF0.55368105241560805
aF0.69314718055994518
aF0.84729786038720356
aF0.69314718055994518
aF1.5040773967762739
aF0.81093021621632877
aF0.69314718055994518
aF1.2163953243244932
aF0.40546510810816438
aF0.74193734472937733
aF0.58778666490211895
aF0.58778666490211895
aF1.9503644994046934
aF0.81093021621632866
aF0.77010822169607351
aF0.58778666490211895
aF0.44628710262841953
aF1.7804654626092957
aF1.6626824269529126
aF1.354381067298396
aF1.7962138195774351
aF0.54345085108206725
aF3.215133408013402
aF1.054276474848058
aF0.71334988787746456
aF0.62860865942237409
aF0.76659440239627696
aF0.62860865942237409
aF0.62860865942237409
aF0.61618613942381706
aF1.2039728043259359
aF1.3862943611198904
aF1.2241755116434552
aF1.9459101490553132
aF1.9459101490553132
aF2.3513752571634776
aF1.9459101490553132
aF0.53144491096872648
aF0.53144491096872648
aF0.53144491096872648
aF0.53144491096872648
aF2.2744142160273491
aF2.0763443022652552
aF2.4818094103734198
aF2.0763443022652552
aF2.1814762203680802
aF2.0273255405408221
aF2.0273255405408221
aF2.0273255405408221
aF0.46245203948177505
aF0.26103413096888911
aF0.40546510810816438
aF0.30830135965451672
aF0.74938689888282106
aF0.74938689888282106
aF0.74938689888282106
aF0.74938689888282106
aF0.30830135965451672
aF0.30830135965451672
aF0.5389965007326869
aF0.83974627062324325
aF0.54946341647140484
aF0.71376646776268116
aF0.61660271930903343
aF0.54946341647140484
aF1.3578948865981926
aF1.4838746894587549
aF1.4838746894587549
aF1.8485178030466638
aF0.30830135965451672
aF0.46245203948177505
aF0.30830135965451672
aF0.30830135965451672
aF5.0680388053550818
aF3.7219212613152282
aF5.2911823566692924
aF5.7656403362644078
aF2.051042067158138
aF2.2333636239520924
aF2.4565071752663017
aF1.4224334077357637
aF0.72770380639486754
aF0.99703674017845167
aF0.72770380639486754
aF1.1331689145030319
aF1.1903066135621214
aF1.1032952365724917
aF1.487558137030053
aF1.1032952365724917
aF0.77010822169607351
aF0.77010822169607351
aF0.8571195986857032
aF0.91832416600351718
aF1.2201802914926616
aF1.6718347820702004
aF1.3071916684822913
aF1.4433238428068713
aF0.18232155679395459
aF0.18232155679395459
aF0.18232155679395459
aF0.18232155679395459
aF0.40546510810816438
aF0.31608154697347907
aF1.8077364237511957
aF0.31608154697347907
aF1.2696398388433057
aF0.83932969073802688
aF0.86417473073514095
aF4.1027960678108579
aF0.2107210313156527
aF0.2107210313156527
aF0.49840310376743352
aF0.2107210313156527
aF0.67252789335720942
aF1.0622446444972349
aF0.94446160884085129
aF1.3499267169490157
aF0.92871325187271225
aF0.52324814376454787
aF0.56407013828480301
aF0.92871325187271225
aF0.52324814376454787
aF0.52324814376454787
aF0.81093021621632877
aF0.52324814376454787
aF0.57536414490356169
aF1.0861897686695523
aF0.98082925301172597
aF2.0588222544771
aF1.5997021208552986
aF1.5100899621656114
aF1.2426105970313499
aF2.2865061028603884
aF1.668049814902032
aF4.2672388028215611
aF1.3034067013141228
aF2.7110454049062729
aF2.2013482945200811
aF3.0122785107364103
aF2.2013482945200811
aF2.2013482945200811
aF4.3704019948896047
aF1.3667368312425892
aF0.55961578793542277
aF0.55961578793542277
aF1.0748957620507935
aF0.85175221073658391
aF0.69314718055994518
aF1.0748957620507937
aF1.2163953243244932
aF0.81093021621632877
aF0.81093021621632877
aF0.81093021621632877
aF0.69314718055994518
aF0.88366550455807835
aF0.69314718055994518
aF0.69314718055994518
aF1.0748957620507937
aF0.69314718055994518
aF0.69314718055994518
aF0.69314718055994518
aF0.68072466056138803
aF1.0737672486709953
aF0.49840310376743358
aF0.51082562376599072
aF2.1522788656321019
aF1.2667597924247009
aF1.1814999484738775
aF1.0092287275334242
aF0.51082562376599072
aF0.39304258810960718
aF0.39304258810960718
aF0.39304258810960718
aF1.2560888054649497
aF0.68072466056138803
aF0.69314718055994518
aF0.68072466056138803
aF1.0577902941478545
aF0.77010822169607351
aF0.8263479400189494
aF1.0577902941478545
aF0.74193734472937733
aF0.58778666490211895
aF0.89608802455663572
aF0.58778666490211895
aF1.9011577553500447
aF2.0553084351773032
aF1.8321648838630935
aF1.8321648838630935
aF1.4875818267574004
aF2.6919712109685525
aF2.5396740997906173
aF2.2883596715097112
aF1.2909841813155656
aF1.0654684458563002
aF1.3779955583051953
aF1.0654684458563002
aF0.68072466056138825
aF0.57536414490356191
aF0.68072466056138825
aF0.68072466056138825
aF0.59783700075562041
aF0.59783700075562041
aF1.0033021088637848
aF0.59783700075562041
aF0.59783700075562041
aF0.59783700075562041
aF0.59783700075562041
aF0.85175221073658391
aF0.68143659405597012
aF1.0622446444972349
aF0.68143659405597012
aF1.5730702682632254
aF1.0464962875290957
aF1.3341783599808767
aF1.0464962875290957
aF1.0464962875290957
aF1.3773725386461877
aF0.63876103088639213
aF0.97077891715822484
aF1.7941316533731106
aF0.79528389485870621
aF0.84800979388178555
aF1.606214111075035
aF1.1950509818522328
aF0.10536051565782635
aF0.10536051565782635
aF0.39304258810960718
aF0.10536051565782635
aF1.3663202513573729
aF1.593918153020963
aF1.2121695715301146
aF1.9053167520900598
aF0.79850769621777151
aF0.79850769621777151
aF0.79850769621777151
aF0.79850769621777151
aF1.0861897686695525
aF1.2039728043259359
aF1.0861897686695525
aF1.0861897686695525
aF0.57536414490356169
aF0.28768207245178085
aF0.66821391401473351
aF0.85346688567426399
aF0.99280408166563328
aF0.63207486739886043
aF0.6359887667199966
aF0.46955593790108541
aF0.99280408166563328
aF1.3982691897737975
aF0.99280408166563328
aF1.7267732567458336
aF0.64103117942093135
aF0.44628710262841964
aF0.23556607131276691
aF0.28768207245178085
aF1.2163953243244932
aF0.89097292388986515
aF0.81093021621632877
aF0.81093021621632877
aF1.930886847356698
aF1.3555227024531364
aF1.930886847356698
aF1.3555227024531364
aF2.2100340634117854
aF1.3991038471954567
aF1.602856209195016
aF1.7851777659889705
aF1.0033021088637848
aF1.8142323250801136
aF2.4951937000466784
aF1.1086626245216111
aF1.2894612458317614
aF1.5126047971459708
aF1.6949263539399255
aF1.5126047971459708
aF1.2745399797436632
aF1.0738692842815121
aF0.64778488897061182
aF1.9676871603036084
aF1.5078359025218908
aF2.6067627354646996
aF1.923767926368773
aF1.923767926368773
aF1.1861422811534728
aF0.95730070872462492
aF0.95730070872462492
aF1.2168119042097094
aF0.81912698342050727
aF0.81912698342050727
aF0.81912698342050727
aF0.81912698342050727
aF1.2163953243244932
aF0.96508089604358704
aF1.0340737675305385
aF0.91629073187415488
aF0.79850769621777151
aF0.57536414490356169
aF1.2039728043259357
aF0.57536414490356169
aF1.0986122886681096
aF0.98082925301172597
aF1.1631508098056806
aF0.75768570169751626
aF1.1755733298042379
aF1.1755733298042379
aF1.1755733298042379
aF1.5810384379124025
aF1.5040773967762739
aF1.5040773967762739
aF1.9095425048844383
aF1.5040773967762739
aF0.69314718055994518
aF0.81093021621632877
aF0.98082925301172597
aF0.69314718055994518
aF1.1755733298042379
aF1.1755733298042379
aF1.1755733298042379
aF1.1755733298042379
aF0.73396917508020043
aF0.73396917508020043
aF0.73396917508020043
aF0.73396917508020043
aF0.82667857318446769
aF0.55474485770082604
aF0.55474485770082604
aF0.82667857318446769
aF0.44183275227903918
aF0.30830135965451672
aF0.30830135965451672
aF0.59598343210629756
aF0.44183275227903918
aF0.44183275227903918
aF0.44183275227903918
aF1.1349799328389845
a.