(dp1
S'distance'
p2
(lp3
S'tokenize'
p4
aS'lemmatize'
p5
aS'coreference'
p6
aS'stopwords'
p7
aS'hypernymy'
p8
aS'tokenfrequency'
p9
asS'bowall'
p10
(lp11
g6
ag8
ag9
asS'selectsent'
p12
(lp13
g4
ag5
ag8
asS'slidingwindow'
p14
(lp15
g6
ag8
ag9
asS'bow'
p16
(lp17
g5
ag8
ag9
asS'ngram'
p18
(lp19
g5
ag8
as.