(lp1
F0.55961578793542277
aF0.57536414490356169
aF0.40546510810816438
aF0.44183275227903918
aF0.70889553752808432
aF1.1143606456362485
aF1.2966822024302034
aF0.80605928598173215
aF0.49062291644847134
aF0.49062291644847134
aF0.49062291644847134
aF0.49062291644847134
aF0.82358133376988762
aF0.82358133376988762
aF0.82358133376988762
aF1.229046441878052
aF1.5561933979152875
aF1.6094379124341001
aF1.3217558399823193
aF1.0340737675305385
aF0.57536414490356169
aF0.40546510810816438
aF0.81093021621632877
aF0.81093021621632877
aF1.7433858849438393
aF1.0340737675305385
aF1.2733822556981036
aF2.0149030205422642
aF0.93691001907689087
aF1.1192315758708455
aF0.93691001907689087
aF1.188224447357797
aF0.36772478012531717
aF0.48550781578170077
aF0.40546510810816438
aF0.73396917508020043
aF0.31423609517433104
aF0.16008541534707271
aF0.31423609517433104
aF0.33647223662121295
aF0.81093021621632877
aF0.81093021621632877
aF0.81093021621632877
aF1.0340737675305385
aF0.69314718055994518
aF0.77318988823348156
aF0.87385188310975381
aF0.69314718055994518
aF1.0704414117014134
aF0.84729786038720367
aF0.84729786038720367
aF0.84729786038720367
aF0.77010822169607351
aF0.95242977849002808
aF0.5469646703818638
aF0.77010822169607351
aF0.79850769621777151
aF0.79850769621777151
aF1.0861897686695523
aF0.79850769621777151
aF1.1758019273592395
aF1.1758019273592395
aF1.4634839998110203
aF1.1758019273592395
aF1.188224447357797
aF1.2733822556981038
aF1.6788473638062682
aF1.6094379124341001
aF0.78275933924963259
aF0.71376646776268116
aF1.1192315758708455
aF0.71376646776268116
aF1.188224447357797
aF1.4759065198095778
aF1.2163953243244932
aF1.4759065198095778
aF2.440987415853165
aF0.81093021621632877
aF0.84729786038720356
aF1.1555992200417202
aF0.75458846228293619
aF1.1318826934244044
aF1.4477356428428814
aF0.93691001907689087
aF0.77010822169607351
aF1.0786381789055923
aF1.5040773967762739
aF0.96508089604358716
aF1.3944911283240693
aF1.3663202513573731
aF1.1758019273592399
aF0.85549462759138239
aF1.6207319190528588
aF1.6207319190528588
aF2.3263016196113613
aF1.6207319190528588
aF0.82667857318446769
aF0.61660271930903343
aF0.90428479176081433
aF0.61660271930903343
aF1.6218604324326575
aF2.0273255405408221
aF1.9095425048844383
aF2.0273255405408221
aF0.86791714758993954
aF0.86791714758993954
aF0.75013411193355595
aF0.75013411193355595
aF1.1349799328389845
aF1.1555992200417202
aF3.0558164443421818
aF1.1349799328389845
aF1.0014485402144619
aF1.4069136483226263
aF1.4069136483226263
aF1.8123787564307907
aF1.1631508098056806
aF1.4302135950547259
aF1.4302135950547259
aF1.4302135950547259
aF2.0918640616783932
aF1.3862943611198904
aF5.845282036929901
aF0.81093021621632877
aF1.2636403952289101
aF0.72951482473082019
aF0.72951482473082008
aF0.72951482473082019
aF1.0968607556293035
aF1.566864384875039
aF1.5023258637374681
aF1.2484106537565043
aF1.0885619528146084
aF1.1838721326189332
aF1.0885619528146084
aF1.0015505758249788
aF1.1205772822466196
aF1.0252671024422946
aF0.75593416865871021
aF1.0436162411104912
aF0.56531380905006035
aF0.66062398885438522
aF0.47830243206043072
aF0.66062398885438545
aF1.3613610945746786
aF0.66821391401473351
aF1.1355203838672283
aF0.66821391401473351
aF0.81093021621632877
aF0.46608972992459924
aF0.40546510810816438
aF0.40546510810816438
aF1.0216512475319812
aF1.0216512475319812
aF1.0216512475319812
aF1.0216512475319812
aF0.46608972992459924
aF0.46608972992459924
aF0.40546510810816438
aF0.40546510810816438
aF1.0731220712307772
aF1.4222454254055488
aF0.95533903557439359
aF1.6121185719634639
aF0.916290731874155
aF1.3217558399823193
aF1.1833535171232001
aF1.0498221244986776
aF1.0779930014653738
aF0.67252789335720953
aF0.67252789335720953
aF0.92384232163811564
aF2.335210320310122
aF2.335210320310122
aF2.335210320310122
aF2.335210320310122
aF0.57981849525294216
aF0.57981849525294216
aF1.6784307839210517
aF1.3419585472998388
aF0.69760153090932553
aF0.5842728456023224
aF1.0261055978813616
aF3.974176220645719
aF0.40546510810816438
aF0.40546510810816438
aF0.28768207245178085
aF0.40546510810816438
aF1.1720595105044413
aF1.1720595105044413
aF1.2774200261622677
aF1.1720595105044413
aF0.84729786038720356
aF0.95005759434497239
aF0.84729786038720356
aF0.66237552189319149
aF0.65904156807343428
aF1.0645066761815987
aF1.0645066761815987
aF1.0645066761815987
aF1.031472985830481
aF0.89794159320595845
aF0.89794159320595845
aF0.89794159320595845
aF0.57721771355288465
aF0.65132568570660654
aF0.57721771355288465
aF0.62600787772231659
aF0.67739882359180625
aF1.0420419371797154
aF0.75744153126534264
aF0.67739882359180625
aF0.79850769621777151
aF0.95711272639441014
aF0.98082925301172597
aF0.79850769621777151
aF0.78869407476944686
aF0.78869407476944686
aF0.97101563156340143
aF0.8501509293696099
aF1.2964380319980295
aF0.93179491841012019
aF0.93179491841012019
aF0.93179491841012019
aF1.5087603446806559
aF1.5087603446806559
aF1.5087603446806559
aF1.5087603446806559
aF1.3625778345025745
aF0.98082925301172619
aF1.2560888054649497
aF0.6931471805599454
aF0.49840310376743352
aF0.91629073187415511
aF1.0298480147361599
aF1.2560888054649497
aF1.4916548767777167
aF1.4916548767777167
aF1.2560888054649497
aF1.3093333199837622
aF1.6976929601889874
aF1.6976929601889874
aF1.6976929601889874
aF1.8800145169829421
aF0.47000362924573558
aF0.47000362924573558
aF0.47000362924573558
aF0.92758473849291367
aF0.71686370717726133
aF0.47000362924573558
aF0.78140222831483253
aF0.71686370717726133
aF1.3330498466010781
aF1.0045457796290422
aF1.0453677741492973
aF1.0045457796290422
aF0.81093021621632866
aF0.916290731874155
aF0.8266785731844678
aF0.8266785731844678
aF1.2572173188447482
aF2.2582492791739934
aF1.4803608701589579
aF1.0748957620507935
aF1.455287232606842
aF1.5730702682632254
aF1.3499267169490157
aF1.3499267169490157
aF0.94446160884085129
aF0.62860865942237409
aF0.58778666490211895
aF1.2163953243244932
aF1.2276893309432517
aF2.0386195471595805
aF1.4632554022560189
aF0.75768570169751626
aF0.57536414490356169
aF1.3862943611198904
aF1.1507282898071234
aF0.57536414490356169
aF1.3862943611198904
aF0.57536414490356169
aF0.57536414490356169
aF0.57536414490356169
aF0.47000362924573547
aF0.47000362924573547
aF0.47000362924573547
aF0.81093021621632877
aF1.1431767000431632
aF2.7319953252745277
aF1.2609597356995466
aF2.9675613965872949
aF1.0704414117014134
aF0.54719326793686551
aF0.95265837604503001
aF0.72196323496685977
aF0.81912698342050749
aF0.86791714758993943
aF0.81912698342050749
aF0.86791714758993954
aF1.0992574661083279
aF1.2452113787314074
aF1.2452113787314074
aF0.99389695045050164
aF1.0216512475319814
aF1.0216512475319814
aF1.0216512475319814
aF0.91629073187415488
aF2.1490795906070059
aF1.216623921879495
aF1.7198979558815251
aF1.5249252815340115
aF1.4113679986720067
aF1.2327888587328506
aF0.99348037056528515
aF1.8407782309524885
aF0.55961578793542277
aF0.59598343210629756
aF0.85994897794076253
aF0.70579829811350425
aF1.3097498998689785
aF1.3097498998689785
aF1.7673310091161567
aF2.9582361160033179
aF1.0748957620507937
aF1.5448993912965292
aF1.1394342831883648
aF1.2572173188447482
aF2.1521768300215851
aF2.6097579392687633
aF1.4590296494616399
aF1.4590296494616399
aF1.7613983215561255
aF1.627866928931603
aF1.4943355363070805
aF1.802636895961597
aF2.8952426881307614
aF3.8603235841743486
aF2.8952426881307614
aF3.300707796238926
aF1.9822777932261879
aF1.6739764335716714
aF1.9616585060234522
aF0.69314718055994518
aF1.2163953243244932
aF1.3987168811184478
aF1.3987168811184478
aF1.2163953243244932
aF2.6967561944834513
aF2.6967561944834513
aF2.6967561944834513
aF2.6967561944834513
aF1.2572173188447482
aF1.3625778345025745
aF1.2572173188447482
aF1.4803608701589581
aF0.91629073187415488
aF0.69314718055994518
aF0.69314718055994518
aF1.0986122886681096
aF0.79850769621777151
aF0.79850769621777151
aF1.3217558399823193
aF1.6094379124341001
aF1.0216512475319812
aF1.0216512475319812
aF1.0216512475319812
aF1.0216512475319812
aF1.4289699242894685
aF1.0696941986506787
aF1.4263691425894109
aF2.0584916213115818
aF1.1394342831883648
aF0.71562003641200378
aF0.85175221073658391
aF0.90624039602065376
aF0.8517522107365838
aF0.93876358772621349
aF1.1210851445201682
aF1.0340737675305385
aF2.1280031082942665
aF1.0477399582943532
aF1.8278985158439283
aF1.0477399582943532
aF1.5120455664254511
aF1.5120455664254511
aF1.2607311381445447
aF1.1065804583172865
aF0.55961578793542277
aF0.55961578793542277
aF0.55961578793542277
aF0.55961578793542277
aF0.77010822169607351
aF0.58778666490211895
aF0.77010822169607351
aF1.3987168811184478
aF1.2039728043259357
aF1.645805556604975
aF1.2039728043259357
aF1.4916548767777165
aF0.94000725849147082
aF1.2070700437405162
aF0.94000725849147093
aF1.2276893309432517
aF0.97595832277712935
aF0.97595832277712935
aF1.3814234308852937
aF1.1507282898071234
aF1.3862943611198904
aF1.3862943611198904
aF1.2527629684953678
aF1.4226620052907653
aF0.49020633656325491
aF0.51082562376599061
aF0.49020633656325491
aF0.51082562376599061
aF1.3034067013141228
aF1.037068971334602
aF1.6893941573742919
aF2.3813997027794973
aF1.0678406300013557
aF1.037068971334602
aF1.037068971334602
aF0.98082925301172597
aF0.98082925301172608
aF0.78015855754957486
aF1.9195928407379395
aF0.78015855754957486
aF1.7734103305598583
aF0.78015855754957486
aF1.1856236656577392
aF1.3679452224516939
aF1.6502599069543553
aF0.70669821393830079
aF1.6502599069543553
aF0.66943065394262935
aF0.52324814376454787
aF0.92871325187271225
aF1.4519613956372601
aF0.74639169507875769
aF0.23556607131276691
aF0.66943065394262935
aF0.47113214262553382
aF0.52324814376454787
aF0.66943065394262935
aF1.6502599069543553
aF0.66943065394262935
aF1.6502599069543553
aF1.5561933979152875
aF1.4384103622589042
aF1.1507282898071234
aF1.1507282898071234
aF2.8453240105815305
aF2.5339254115124339
aF2.8453240105815305
aF2.7162469683063883
aF1.9616585060234519
aF2.0794415416798357
aF1.2891306126662425
aF0.98082925301172597
aF0.88366550455807846
aF0.37729423114146809
aF1.6345115499862162
aF1.1192315758708455
aF0.18232155679395459
aF0.62860865942237409
aF1.0986122886681096
aF0.99325177301028333
aF-0.60613580357031549
aF-0.69314718055994518
aF-0.51082562376599061
aF-0.916290731874155
aF1.9616585060234522
aF2.1747517214841601
aF1.6739764335716711
aF2.5086231764053162
aF1.3454723665996351
aF1.3578948865981926
aF0.95242977849002819
aF1.4224334077357637
aF0.13353139262452257
aF0.22314355131420976
aF0.40546510810816438
aF0.57536414490356169
aF0.81093021621632877
aF0.69314718055994518
aF0.81093021621632877
aF0.81093021621632877
aF0.40546510810816438
aF0.81093021621632877
aF0.57536414490356169
aF0.5389965007326869
aF0.82667857318446769
aF0.82667857318446769
aF1.1394342831883646
aF0.82667857318446769
aF0.55961578793542277
aF0.42608439531090014
aF0.75881421507731484
aF0.81093021621632855
aF1.3423751271850553
aF1.2370146115272289
aF1.3423751271850553
aF0.93691001907689087
aF0.95265837604502979
aF0.92871325187271214
aF1.1349799328389845
aF1.3581234841531942
aF1.2527629684953681
aF1.6582280766035324
aF1.2527629684953681
aF1.2527629684953681
aF1.0873182820493508
aF1.0873182820493508
aF1.0873182820493508
aF1.0873182820493508
aF2.4984576831663556
aF2.0929925750581915
aF2.0929925750581915
aF2.0929925750581915
aF1.1642793231854791
aF0.92871325187271214
aF1.8982484982656793
aF0.92871325187271214
aF0.40546510810816427
aF0.52324814376454787
aF0.52324814376454787
aF0.69314718055994518
aF0.61618613942381695
aF0.3285040669720361
aF0.53144491096872648
aF0.63680542662655282
aF0.39304258810960718
aF0.2107210313156527
aF1.5857213858167842
aF0.41366187531234311
aF2.6392859271702598
aF0.81912698342050749
aF1.0624732420522365
aF0.92448749907833383
aF0.6931471805599454
aF0.74193734472937733
aF0.72131805752664158
aF0.79850769621777173
aF1.2321436812926321
aF1.791759469228055
aF1.2321436812926321
aF0.6931471805599454
aF1.0577902941478545
aF0.86716993453920477
aF1.3862943611198906
aF0.67252789335720942
aF1.6117080609686389
aF1.5089483270108706
aF1.6630990068381291
aF2.9879520862350288
aF3.0907118201927979
aF2.8551457488800311
aF3.1244786826636153
aF2.8551457488800311
aF1.417302734191821
aF1.417302734191821
aF1.8227678422999853
aF1.417302734191821
aF0.77318988823348156
aF0.77318988823348156
aF0.98082925301172608
aF0.87855040389130767
aF1.3609765531356006
aF1.4787595887919842
aF1.3609765531356006
aF1.5308755899309978
aF1.9740810260220094
aF1.9740810260220094
aF1.568615917913845
aF1.568615917913845
aF0.57536414490356169
aF0.57536414490356169
aF0.57536414490356169
aF0.98082925301172597
aF2.2054213445403978
aF1.7999562364322332
aF1.7999562364322332
aF1.7999562364322332
aF1.8281271133989296
aF1.6739764335716711
aF1.6739764335716711
aF1.6739764335716711
aF0.84729786038720356
aF1.0986122886681096
aF0.69314718055994518
aF0.71376646776268116
aF1.0748957620507937
aF1.1394342831883646
aF1.0748957620507937
aF1.0748957620507937
aF1.2685113254635068
aF0.69314718055994518
aF0.98082925301172597
aF0.98082925301172597
aF0.40546510810816438
aF0.55961578793542277
aF0.40546510810816438
aF0.55961578793542277
aF0.78585657866421277
aF1.1301090026043876
aF0.96020996580899043
aF0.94000725849147104
aF0.76214005204689661
aF0.76214005204689661
aF1.167605160155061
aF0.86304621735534259
aF1.1143606456362487
aF1.1143606456362487
aF1.3375041969504584
aF1.1143606456362487
aF0.96020996580899043
aF0.7370664144947805
aF0.40546510810816438
aF0.26706278524904514
aF1.9377133818511347
aF1.7962138195774351
aF2.068147535061077
aF1.5730702682632254
aF0.55961578793542277
aF0.71376646776268116
aF0.55961578793542277
aF0.40546510810816438
aF1.568615917913845
aF2.1972245773362191
aF1.568615917913845
aF1.568615917913845
aF1.8041819892266122
aF1.6218604324326575
aF1.568615917913845
aF1.2163953243244932
aF2.0273255405408221
aF1.9095425048844383
aF1.6218604324326575
aF1.6218604324326575
aF1.4714521694601974
aF1.0094167098636389
aF1.0094167098636389
aF1.1635673896908971
aF0.55961578793542277
aF0.55961578793542266
aF0.55961578793542277
aF0.55961578793542277
aF1.7354177152946619
aF1.0014485402144619
aF1.0014485402144619
aF1.2891306126662427
aF0.50749978679640873
aF0.91296489490457322
aF0.73064333811061855
aF0.62528282245279221
aF0.96508089604358716
aF2.7568403652716422
aF1.7760111122599158
aF1.3705460041517514
aF0.81093021621632877
aF0.98082925301172608
aF0.69314718055994518
aF1.3862943611198904
aF0.81093021621632877
aF0.81093021621632877
aF0.81093021621632877
aF1.2163953243244932
aF2.2335922215070938
aF1.8281271133989294
aF1.8281271133989294
aF1.8281271133989294
aF1.1596369905058841
aF1.1596369905058841
aF1.1596369905058841
aF1.5651020986140485
aF0.89121709432203877
aF0.60353502187025798
aF1.0090001299784224
aF1.0090001299784224
aF1.2760629152274676
aF1.2272727510580355
aF1.2272727510580355
aF1.2272727510580355
aF0.40546510810816438
aF0.42121346507630342
aF0.49020633656325491
aF0.35667494393873234
aF1.5561933979152878
aF1.5561933979152875
aF1.6897247905398101
aF1.5561933979152875
aF0.69314718055994518
aF0.69314718055994518
aF0.55474485770082604
aF0.57536414490356169
aF1.7917594692280547
aF1.9252908618525773
aF1.9252908618525773
aF1.9252908618525773
aF0.96020996580899021
aF0.69314718055994518
aF1.0986122886681096
aF0.84242693015260683
aF0.864282432093603
aF1.0073832757342764
aF1.3581234841531944
aF0.78423972442006662
aF1.5757868681719198
aF1.6811473838297462
aF2.3867170843882484
aF1.5757868681719198
aF0.64559323112877354
aF0.64559323112877354
aF0.64559323112877354
aF0.77318988823348156
aF1.2586977040151823
aF1.6641628121233467
aF1.2586977040151823
aF1.2586977040151823
aF0.91547109702111074
aF1.2780807764796576
aF0.33053750110139829
aF2.0453359291933246
aF0.67009140426001945
aF0.9622278270611806
aF0.67009140426001945
aF0.88503818837005066
aF1.0577902941478545
aF1.3883277952492528
aF1.1318982663015764
aF1.8687205103641833
aF0.67009140426001945
aF0.67009140426001945
aF0.9622278270611806
aF0.88503818837005066
aF0.82667857318446769
aF0.94446160884085129
aF0.99657760997986511
aF0.94446160884085129
aF1.0498221244986776
aF1.0498221244986776
aF1.0498221244986776
aF0.93203908884229403
aF1.6455769590499736
aF1.2401118509418092
aF0.83464674283364459
aF1.6863989535702284
aF1.3499267169490157
aF1.7553918250571801
aF1.3499267169490157
aF1.7553918250571801
aF1.8201589437497525
aF1.2447947988461909
aF1.6502599069543553
aF1.2447947988461909
aF0.97077891715822484
aF0.97077891715822484
aF1.3762440252663892
aF1.3762440252663892
aF2.0274406979262807
aF2.1078410162015335
aF1.5561933979152875
aF2.498801438106816
aF0.73521284584545799
aF0.77603484036571302
aF0.56531380905006057
aF0.62985233018763165
aF2.3513752571634776
aF1.5404450409471488
aF1.8075078261961939
aF1.5404450409471488
aF1.6453889767197585
aF1.0700248318161969
aF1.2035562244407194
aF1.2035562244407194
aF0.89608802455663572
aF0.74193734472937733
aF0.9242589015233319
aF0.9242589015233319
aF0.77010822169607351
aF0.87546873735389985
aF1.1837700970084164
aF1.0748957620507937
aF0.57536414490356169
aF0.81093021621632877
aF0.81093021621632877
aF1.2163953243244932
aF0.81093021621632877
aF0.40546510810816438
aF0.91629073187415488
aF0.40546510810816438
aF0.40546510810816438
aF0.40546510810816438
aF0.59598343210629756
aF0.40546510810816438
aF1.0216512475319812
aF1.0216512475319812
aF1.309333319983762
aF1.4916548767777167
aF0.85484945015116409
aF0.85484945015116398
aF0.44938434204299976
aF0.67252789335720942
aF0.81093021621632877
aF0.77010822169607351
aF0.81093021621632877
aF0.87546873735389985
aF0.58778666490211895
aF1.3987168811184478
aF0.81093021621632877
aF0.58778666490211895
aF0.85484945015116398
aF0.85484945015116409
aF0.8266785731844678
aF0.60353502187025798
aF0.14821594430744367
aF0.14821594430744367
aF0.14821594430744367
aF0.14821594430744367
aF0.59004869658648285
aF0.59004869658648285
aF0.59004869658648285
aF0.59004869658648285
aF0.77967767271222432
aF0.76725515271366707
aF0.54411160139945736
aF0.79542602968036324
aF0.81093021621632877
aF0.81093021621632877
aF0.81093021621632877
aF1.3862943611198904
aF-0.69314718055994518
aF-0.69314718055994518
aF-0.28768207245178085
aF-0.69314718055994518
aF1.4659256308118975
aF1.2229794522015081
aF1.4557732593478796
aF1.1658210383615595
aF1.8740609674759408
aF1.8740609674759408
aF1.8740609674759408
aF2.2795260755841049
aF0.99060222494035299
aF1.2817505053686202
aF1.2817505053686202
aF1.212757633881669
aF1.6863989535702286
aF1.6863989535702286
aF1.6863989535702286
aF2.0918640616783932
aF0.40546510810816438
aF0.65232518603969003
aF0.40546510810816438
aF0.77010822169607351
aF1.1394342831883646
aF1.1394342831883646
aF1.1394342831883646
aF1.1394342831883646
aF1.0171968971826009
aF1.4872005264283363
aF1.0171968971826009
aF1.0171968971826009
aF1.5528675609457061
aF1.9583326690538705
aF1.9583326690538705
aF1.5528675609457061
aF0.91629073187415488
aF1.1394342831883646
aF0.91629073187415488
aF0.91629073187415488
aF0.55961578793542277
aF0.96508089604358716
aF0.78275933924963259
aF0.55961578793542277
aF1.3217558399823193
aF1.5040773967762739
aF1.0577902941478545
aF1.4632554022560189
aF0.81093021621632877
aF0.55961578793542277
aF0.55961578793542277
aF0.78275933924963248
aF0.69314718055994518
aF0.40546510810816438
aF0.44183275227903918
aF0.77010822169607351
aF1.3536691338038138
aF1.6537737262541519
aF1.3423751271850553
aF1.2483086181459875
aF0.44183275227903918
aF0.71376646776268116
aF0.82690717073946973
aF0.47000362924573552
aF1.8041819892266122
aF1.3015531326648
aF1.8041819892266122
aF1.3987168811184478
aF1.0340737675305385
aF0.90054237490601607
aF2.6559341999631965
aF0.74639169507875769
aF1.4346679454041062
aF1.1991018740913391
aF0.96953524639296751
aF1.0292028372959419
aF0.55961578793542277
aF0.8517522107365838
aF0.64103117942093135
aF0.64103117942093135
aF0.8266785731844678
aF0.48575198621387455
aF0.42121346507630342
aF0.48575198621387455
aF1.0453677741492975
aF1.0045457796290422
aF1.0045457796290422
aF0.88676274397265886
aF0.94000725849147115
aF1.2809338454620645
aF0.94000725849147115
aF0.94000725849147115
aF1.4337274143545224
aF1.3691888932169514
aF1.1460453419027417
aF1.1460453419027417
aF1.0986122886681096
aF0.69314718055994518
aF0.79850769621777151
aF0.69314718055994518
aF1.0216512475319814
aF1.4803608701589579
aF1.5448993912965292
aF0.86304621735534259
aF1.8041819892266122
aF0.86304621735534259
aF1.3987168811184478
aF0.81093021621632877
aF1.1915502843273786
aF1.1915502843273789
aF1.1915502843273786
aF0.79850769621777162
aF1.4190994539160067
aF1.8245645620241713
aF1.0136343458078423
aF1.0756585479787006
aF2.2359562888019746
aF1.6298204852316591
aF1.663106462865126
aF1.6073476293796005
aF0.6369074622370694
aF0.6369074622370694
aF0.6369074622370694
aF0.6369074622370694
aF1.0136343458078423
aF1.1089445256121673
aF1.0136343458078423
aF1.663106462865126
aF1.702563890423584
aF1.5690324977990615
aF1.2970987823154196
aF1.1429481024881614
aF1.4439932259880828
aF1.6263147827820377
aF2.6603885503125762
aF1.4439932259880828
aF0.57536414490356169
aF0.57536414490356169
aF1.7917594692280547
aF0.57536414490356169
aF2.075927722380039
aF1.5242801040937932
aF1.6296406197516196
aF2.0996442489973548
aF1.6218604324326575
aF1.4834581095735382
aF1.2163953243244932
aF2.0273255405408221
aF2.4642873625852646
aF1.2887140327810263
aF1.3375041969504584
aF1.5768126851180235
aF1.7272209480904837
aF1.5888186252313645
aF1.7272209480904837
aF1.8971199848858811
aF0.26706278524904514
aF0.26706278524904514
aF0.26706278524904514
aF0.26706278524904514
aF0.69314718055994518
aF0.86304621735534259
aF0.69314718055994518
aF0.98082925301172608
aF0.75593416865871044
aF0.69139564752113936
aF0.87371720431509392
aF0.8737172043150937
aF0.58778666490211895
aF0.5469646703818638
aF0.94000725849147082
aF0.49062291644847134
aF0.94000725849147082
aF0.5469646703818638
aF0.5469646703818638
aF0.58778666490211895
aF0.40546510810816438
aF0.89097292388986515
aF0.60329085143808414
aF0.60329085143808425
aF0.70865136709591048
aF1.5996242909857756
aF0.78869407476944686
aF0.70865136709591048
aF0.59086833143952688
aF0.99633343954769127
aF0.59086833143952688
aF0.99633343954769127
aF0.48550781578170077
aF0.89097292388986515
aF0.48550781578170077
aF0.48550781578170077
aF0.45140220329518993
aF0.45140220329518993
aF0.45140220329518993
aF0.45140220329518993
aF0.66943065394262935
aF0.58493359591971261
aF0.65904156807343428
aF0.43589801675922463
aF0.65904156807343428
aF0.69314718055994518
aF0.51082562376599061
aF0.91629073187415488
aF0.76928858684302936
aF1.0569706592948103
aF0.91832416600351729
aF0.76928858684302936
aF1.5040773967762739
aF1.4069136483226261
aF1.5892352051165808
aF1.0986122886681096
aF0.98082925301172597
aF0.86304621735534259
aF0.86304621735534259
aF0.86304621735534259
aF1.8450039837468672
aF1.8450039837468672
aF2.4736126431692411
aF1.5040773967762737
aF1.0296194171811583
aF1.1837700970084164
aF0.89608802455663572
aF0.84729786038720356
aF2.3307559699607419
aF0.94446160884085129
aF0.81093021621632877
aF0.96508089604358716
aF0.99657760997986511
aF1.6784307839210515
aF0.97286108336254928
aF1.5606477482646679
aF1.3862943611198904
aF1.0737672486709953
aF1.3738718411213333
aF1.6458055566049752
aF0.78585657866421255
aF0.78585657866421255
aF1.2685113254635068
aF1.6613253160181125
aF0.76214005204689672
aF0.76214005204689672
aF0.76214005204689672
aF0.76214005204689672
aF1.0748957620507937
aF1.0748957620507935
aF1.0748957620507937
aF0.5389965007326869
aF0.60353502187025798
aF0.60353502187025798
aF0.72131805752664158
aF0.60353502187025798
aF1.568615917913845
aF0.70889553752808432
aF1.6897247905398103
aF0.99657760997986511
aF1.3217558399823193
aF1.1518568031869221
aF0.74639169507875769
aF0.81093021621632877
aF1.4395388756387029
aF1.0340737675305385
aF1.2696398388433054
aF1.0340737675305385
aF1.3341783599808765
aF0.92871325187271214
aF1.7928879826078528
aF0.92871325187271214
aF0.92871325187271214
aF0.81093021621632866
aF0.92871325187271214
aF1.2163953243244932
aF0.40546510810816438
aF0.40546510810816438
aF0.58778666490211895
aF0.36464311358790918
aF1.2039728043259359
aF0.95242977849002819
aF1.0340737675305385
aF0.95242977849002808
aF1.6094379124341001
aF0.85175221073658391
aF1.2809338454620642
aF0.87546873735389985
aF1.0169682996275993
aF1.0169682996275993
aF1.0169682996275993
aF1.2809338454620642
aF0.40546510810816438
aF0.40546510810816438
aF0.58778666490211895
aF0.40546510810816438
aF1.2321436812926321
aF0.82667857318446769
aF1.5719417548834267
aF0.7453652173094758
aF2.1106297802318057
aF1.1455488841882189
aF0.7400837760800546
aF1.1455488841882189
aF0.5389965007326869
aI0
aF0.18232155679395459
aF0.50077528791248938
aF0.49247648509779407
aF0.40546510810816438
aF0.40546510810816438
aF0.40546510810816438
aF1.268511325463507
aF1.268511325463507
aF1.2685113254635068
aF0.86304621735534259
aF1.2572173188447482
aF1.2572173188447482
aF1.2572173188447482
aF1.3217558399823193
aF1.3341783599808765
aF1.2163953243244932
aF1.2163953243244932
aF1.2163953243244932
aF1.2163953243244932
aF1.1507282898071234
aF2.0273255405408221
aF1.1507282898071234
aF0.81093021621632877
aF0.60043778245567792
aF0.81093021621632877
aF1.0986122886681096
aF0.62860865942237409
aF0.44628710262841953
aF0.44628710262841953
aF0.44628710262841953
aF0.91629073187415488
aF0.62860865942237409
aF2.2380465718564744
aF0.81093021621632877
aF1.2163953243244932
aF1.1306276181001209
aF0.97670553582786424
aF1.2163953243244932
aF0.90386821187559785
aF0.79850769621777151
aF0.79850769621777151
aF1.0216512475319812
aF0.96072858130472349
aF0.6061358035703156
aF0.84294554564834001
aF0.8654184015003985
aF0.81093021621632877
aF0.81093021621632877
aF0.40546510810816438
aF0.411391726777804
aF0.51082562376599061
aF0.51082562376599061
aF0.28768207245178085
aF0.44183275227903918
aF1.2527629684953681
aF0.84729786038720356
aF1.2527629684953681
aF0.84729786038720356
aF0.93691001907689087
aF0.78275933924963259
aF0.55961578793542277
aF0.55961578793542277
aF1.6094379124341001
aF1.7793369492294975
aF1.6094379124341001
aF1.2039728043259359
aF0.49020633656325491
aF0.58551651636757984
aF0.49020633656325491
aF0.5389965007326869
aF0.76214005204689672
aF1.1676051601550612
aF0.76214005204689672
aF0.49020633656325491
aF0.72928622717581837
aF0.72928622717581837
aF1.1347513352839826
aF1.1347513352839826
aF1.2887140327810263
aF1.5888186252313643
aF1.7429693050586228
aF3.8463559709107762
aF0.92685968322338952
aF0.92685968322338952
aF1.4501078269879373
aF1.4302357528359362
aF0.77010822169607351
aF0.77010822169607351
aF0.86541840150039839
aF0.77010822169607351
aF1.0704414117014134
aF0.83154950341906442
aF1.4519613956372599
aF1.0221698630277143
aF0.91680934736988817
aF0.79518185924818974
aF1.3956196417038673
aF0.75435986472793448
aF1.0986122886681096
aF1.0986122886681096
aF1.5040773967762739
aF1.0986122886681096
aF1.6094379124341001
aF2.0149030205422647
aF1.6094379124341001
aF1.6094379124341001
aF0.58778666490211895
aF0.75768570169751626
aF0.98082925301172597
aF1.0340737675305385
aF0.81093021621632877
aF0.81093021621632877
aF1.2163953243244932
aF0.81093021621632877
aF0.81093021621632866
aF0.58778666490211895
aF1.2685113254635068
aF0.40546510810816438
aF0.81093021621632877
aF0.81093021621632877
aF0.81093021621632877
aF1.2163953243244932
aF1.6218604324326573
aF1.3987168811184476
aF1.9095425048844383
aF2.8382557567571505
aF0.81093021621632877
aF0.40546510810816438
aF0.81093021621632877
aF2.1688251028145213
aF0.89097292388986515
aF1.1141164752040749
aF1.2556160374777745
aF0.89097292388986515
aF0.64559323112877354
aF0.60477123660851828
aF0.44468582126144551
aF0.44468582126144551
aF1.0732944806838198
aF0.66782937257565533
aF0.66782937257565533
aF0.89097292388986515
aF1.2209573760323353
aF1.2572173188447482
aF1.0386358192383807
aF1.0386358192383807
aF0.95711272639441014
aF0.91629073187415488
aF1.0033021088637846
aF1.0498221244986774
aF2.6281577451005056
aF0.64175623469045573
aF0.89794159320595845
aF0.78015855754957486
aF1.9865035460205669
aF1.4449062635878223
aF1.5810384379124025
aF1.9865035460205669
aF1.4608832181109628
aF1.3712710594212756
aF3.0294991360248078
aF2.4541349911212462
aF0.62860865942237409
aF0.42121346507630342
aF0.40546510810816438
aF0.94446160884085129
aF0.80296204656715187
aF0.80296204656715187
aF0.80296204656715187
aF1.5730702682632254
aF1.0090001299784224
aF1.3499267169490157
aF0.96020996580899021
aF1.0906441190189327
aF0.99325177301028333
aF0.77010822169607351
aF0.58778666490211895
aF0.58778666490211895
aF0.65492596773974776
aF1.0405190016959112
aF0.65492596773974776
aF0.89951589713673452
aF0.99325177301028333
aF0.58778666490211895
aF1.0577902941478543
aF0.58778666490211895
aF1.5869650565820415
aF1.4816045409242153
aF1.4816045409242153
aF1.7692866133759961
aF0.40546510810816438
aF0.40546510810816438
aF0.40546510810816438
aF0.40546510810816438
aF1.7101154801875444
aF2.6093007441587601
aF1.4224334077357637
aF2.1380534441477672
aF1.529545456432396
aF1.5910887737659036
aF1.5910887737659036
aF1.5910887737659036
aF0.72928622717581837
aF0.72928622717581837
aF0.944130975675333
aF0.72928622717581837
aF2.4071983956011374
aF0.77755777584951735
aF0.77755777584951735
aF1.3679452224516939
aF0.96020996580899043
aF0.96020996580899043
aF0.96020996580899043
aF0.96020996580899043
aF0.81093021621632877
aF0.81093021621632877
aF0.81093021621632877
aF1.0986122886681096
aF0.57981849525294216
aF0.69314718055994518
aF0.76214005204689661
aF0.69314718055994518
aF0.67252789335720942
aF0.72131805752664158
aF0.67252789335720942
aF0.5389965007326869
aF1.2163953243244932
aF1.2163953243244932
aF2.4327906486489868
aF1.8450039837468672
aF1.3091047224287604
aF2.1541324342814248
aF1.4044149022330852
aF2.0588222544771
aF1.3117055041288179
aF1.7171706122369823
aF0.91453919883534907
aF1.3525274986490732
aF2.3470229424246138
aF1.047739958294353
aF1.5485152462068426
aF2.7116660560125228
aF1.0624732420522365
aF1.1791277643288216
aF1.4022713156430313
aF0.96840673301316893
aF0.66497630359324911
aF0.81912698342050749
aF0.51082562376599072
aF0.51082562376599072
aF1.3217558399823195
aF1.3217558399823195
aF2.6435116799646394
aF2.4327906486489868
aF1.0861897686695523
aF1.4916548767777167
aF1.0861897686695523
aF1.0861897686695523
aF0.81093021621632877
aF0.81093021621632877
aF0.81093021621632877
aF0.98082925301172608
aF0.98082925301172608
aF1.1143606456362487
aF0.98082925301172608
aF0.98082925301172608
aF0.94446160884085129
aF1.0779930014653738
aF0.94446160884085129
aF0.94446160884085129
aF0.83932969073802677
aF0.83932969073802677
aF0.83932969073802677
aF0.83932969073802677
aF1.0010319603292455
aF0.84688128050198719
aF1.2115243940898963
aF0.84688128050198719
aF1.3217558399823193
aF1.3217558399823193
aF2.6127400212978849
aF1.3217558399823193
aF0.77010822169607374
aF0.49840310376743369
aF0.95005759434497228
aF1.1755733298042381
aF0.70889553752808432
aF0.36464311358790918
aF0.44183275227903929
aF0.51879379341516751
aF0.99325177301028333
aF1.1236859262202255
aF0.96953524639296729
aF0.99325177301028333
aF0.98082925301172597
aF0.69314718055994518
aF0.52324814376454776
aF0.40546510810816438
aF0.64103117942093135
aF0.40546510810816438
aF0.91629073187415488
aF0.52324814376454787
aF1.0464962875290957
aF1.0464962875290957
aF0.64103117942093135
aF0.92871325187271214
aF0.81093021621632877
aF1.2685113254635068
aF1.7396434680890409
aF0.92871325187271225
aF0.52324814376454787
aF0.70556970055850243
aF0.52324814376454787
aF0.64103117942093135
aF1.4395388756387026
aF0.92871325187271225
aF0.92871325187271225
aF1.845003983746867
aF2.798562275616693
aF1.5821669512922003
aF1.8698490237439815
aF1.5176284301546292
aF1.8079244060814101
aF3.6480980748184684
aF1.443281292493501
aF1.2891306126662427
aF0.72951482473082008
aF0.55961578793542277
aF0.72154665508164328
aF1.5812670354674043
aF0.68072466056138814
aF1.5768126851180235
aF0.87546873735389974
aF0.68072466056138814
aF1.5566099778005043
aF1.8079244060814101
aF0.98124583289694267
aF2.6552222664686136
aF1.8517203657806114
aF1.8517203657806114
aF1.7776123936268893
aF2.588542609843218
aF1.8754368923979272
aF1.3958638121360414
aF1.993219928054311
aF1.4604023332736125
aF1.3000727474943656
aF1.3000727474943656
aF1.4823943042883203
aF1.3000727474943656
aF1.1318982663015764
aF1.2905032964782146
aF0.55368105241560805
aF2.4632235573000463
aF0.9446902063958531
aF1.0092287275334242
aF1.2323722788476339
aF0.9446902063958531
aF1.2323722788476339
aF0.82690717073946962
aF1.0500507220536794
aF1.2323722788476339
aF0.52324814376454776
aF0.53922509828768883
aF0.49840310376743358
aF0.52324814376454776
aF1.6786593814760533
aF1.7840198971338797
aF1.4963378246820989
aF1.4963378246820989
aF0.64477359627572972
aF0.64477359627572972
aF0.64477359627572972
aF0.86791714758993943
aF0.89257420525683906
aF0.89257420525683906
aF0.89257420525683906
aF0.89257420525683906
aF0.40546510810816438
aF0.40546510810816438
aF0.40546510810816438
aF0.81093021621632877
aF0.69314718055994518
aF1.3862943611198904
aF0.69314718055994518
aF0.99325177301028333
aF0.51978193578806164
aF0.54345085108206725
aF0.51669074321838881
aF0.57075796448866456
aF0.54345085108206725
aF0.8799230877032802
aF0.54345085108206725
aF0.54345085108206725
aF0.58778666490211895
aF0.64494507874206763
aF0.99325177301028333
aF0.58778666490211895
aF0.64494507874206763
aF0.58778666490211895
aF0.58778666490211895
aF0.64185388617239481
aF1.7147984280919264
aF1.7147984280919264
aF1.3093333199837622
aF1.7147984280919264
aF0.62860865942237409
aF1.7385149547092424
aF1.3987168811184478
aF0.77010822169607351
aF0.58778666490211895
aF0.69314718055994518
aF0.81093021621632877
aF0.77010822169607351
aF0.73396917508020054
aF0.73396917508020054
aF0.77010822169607362
aF0.73396917508020054
aF0.76180941888137832
aF0.39716630529346914
aF0.76180941888137832
aF0.39716630529346914
aF2.4357858524530496
aF2.4340343194142435
aF2.9348096073267325
aF2.1481037800012688
aF0.66062398885438545
aF0.95005759434497228
aF1.1507282898071234
aF0.98082925301172608
aF1.3495960837834973
aF1.3495960837834973
aF1.4449062635878223
aF1.5319176405774519
aF0.85175221073658391
aF0.85175221073658391
aF1.0423725703452338
aF0.85175221073658391
aF2.124107988665406
aF1.7186428805572413
aF2.971405849052609
aF2.0063249530090221
aF0.73396917508020043
aF0.44628710262841953
aF0.44628710262841953
aF0.51082562376599072
aF1.597015392435543
aF2.2576393812899282
aF2.1848020573376621
aF1.597015392435543
aF1.2163953243244932
aF1.6218604324326575
aF1.2163953243244932
aF1.6218604324326575
aF0.98528360336110632
aF0.80296204656715187
aF0.66943065394262935
aF0.80296204656715187
aF1.167605160155061
aF1.0498221244986776
aF0.98528360336110632
aF1.3907487114692707
aF1.1551826401565037
aF1.1551826401565037
aF1.9661128563728325
aF1.1551826401565037
aF1.4957785939615789
aF1.0033021088637848
aF1.0903134858534145
aF1.0033021088637848
aF0.81093021621632877
aF1.2163953243244932
aF0.81093021621632877
aF0.81093021621632877
aF1.653255110758419
aF1.653255110758419
aF1.6491313935745568
aF1.653255110758419
aF0.86304621735534259
aF1.1507282898071234
aF0.86304621735534259
aF1.1507282898071234
aF0.40546510810816438
aF0.55961578793542266
aF0.57536414490356169
aF0.81093021621632877
aF1.2163953243244932
aF1.0340737675305385
aF3.0569449577219796
aF0.62860865942237409
aF4.8397957262512747
aF1.0577902941478543
aF2.2209411039535349
aF1.945910149055313
aF0.77010822169607351
aF0.47000362924573547
aF0.98082925301172597
aF1.5040773967762739
aF0.77010822169607351
aF1.1755733298042379
aF1.2163953243244932
aF1.0939293407637276
aF0.72928622717581837
aF1.6739764335716714
aF0.81093021621632877
aF0.51082562376599061
aF1.9740810260220094
aF1.6218604324326575
aF1.3987168811184478
aF1.6218604324326575
aF1.6626824269529126
aF1.4803608701589579
aF1.7272209480904837
aF1.4395388756387029
aF0.58318206288090635
aF0.56197985523030325
aF0.56197985523030325
aF0.56197985523030325
aF0.81093021621632877
aF0.81093021621632877
aF0.81093021621632877
aF0.81093021621632877
aF2.1040985993467354
aF2.1040985993467354
aF2.9150288155630646
aF2.1040985993467354
aF1.746332872686587
aF1.746332872686587
aF2.5572630889029155
aF1.3408677645784228
aF0.85484945015116409
aF0.85484945015116409
aF0.85484945015116409
aF0.85484945015116409
aF0.77010822169607351
aF0.87546873735389985
aF0.77010822169607351
aF1.6125351518486803
aF0.58778666490211895
aF0.77010822169607351
aF0.58778666490211895
aF0.58778666490211895
aF0.59598343210629756
aF0.67602613977983395
aF0.59598343210629756
aF0.59598343210629756
aF1.5869650565820417
aF1.1223288152854254
aF1.0986122886681096
aF1.4916548767777167
aF2.8944448079164813
aF4.3948150673941093
aF3.0258940343366789
aF3.0258940343366789
aF4.0694995222249855
aF1.7023759080933691
aF1.5845928724369858
aF2.6139836920631421
aF1.856297990365626
aF2.0386195471595805
aF1.856297990365626
aF2.4440846552677451
aF1.5040773967762739
aF1.5040773967762739
aF1.7272209480904837
aF1.5040773967762739
aF0.74639169507875758
aF0.74639169507875758
aF0.74639169507875758
aF0.56407013828480301
aF1.0986122886681096
aF0.98082925301172608
aF0.98082925301172608
aF1.0216512475319812
aF1.2572173188447482
aF1.5573219112950862
aF1.1518568031869219
aF1.1518568031869219
aF1.6945957207744069
aF1.3705460041517514
aF1.5404450409471486
aF0.84729786038720356
aF1.1762185072444562
aF1.0014485402144619
aF0.81093021621632877
aF1.0014485402144619
aF0.84729786038720356
aF1.3705460041517514
aF0.81093021621632877
aF1.5404450409471486
aF0.81093021621632877
aF1.2163953243244932
aF1.7917594692280547
aF0.81093021621632877
aF0.38299225225610578
aF0.44628710262841953
aF0.53144491096872648
aF0.44628710262841953
aF0.77010822169607351
aF0.58778666490211895
aF0.58778666490211895
aF0.77010822169607351
aF0.54159728243274441
aF0.54159728243274441
aF0.54159728243274441
aF0.54159728243274441
aF0.72391883922669908
aF0.72391883922669908
aF0.90624039602065354
aF0.72391883922669908
aF0.6284721903486622
aF0.87385188310975381
aF1.4097667173050328
aF0.70111535020912208
aF1.6191150648087127
aF1.8704294930896188
aF1.6191150648087127
aF1.6191150648087127
aF0.73544956025063435
aF1.7064651918140359
aF1.0339372984568267
aF0.72563593880230992
aF0.63965849560895904
aF0.71970120328249543
aF1.0043016091968682
aF0.67887920876224028
aF-1.2121695715301144
aF-1.4353131228443241
aF-1.0298480147361602
aF-1.0298480147361602
aF0.53144491096872648
aF0.93691001907689087
aF0.81912698342050727
aF0.53144491096872648
aF1.1802562777086198
aF0.77010822169607351
aF0.68072466056138803
aF1.8971199848858811
aF0.99325177301028322
aF0.77479116960045569
aF1.0340737675305385
aF0.83932969073802677
aF1.2163953243244932
aF0.81093021621632877
aF0.81093021621632877
aF0.81093021621632877
aF1.3862943611198904
aF0.98082925301172597
aF0.98082925301172597
aF0.98082925301172597
aF0.69314718055994518
aF0.69314718055994518
aF0.69314718055994518
aF0.69314718055994518
aF1.726092434710685
aF0.57536414490356169
aF1.1507282898071234
aF0.79850769621777151
aF1.5697444312936433
aF1.5697444312936433
aF1.8574265037454243
aF1.9752095394018077
aF0.40546510810816438
aF0.40546510810816438
aF0.58778666490211895
aF0.69314718055994518
aF1.3388613078852585
aF1.1157177565710488
aF1.5211828646792132
aF1.3388613078852585
aF0.916290731874155
aF1.0986122886681096
aF1.3217558399823193
aF0.916290731874155
aF1.1713475770098591
aF0.84729786038720356
aF1.3944911283240689
aF1.1349799328389842
aF0.87546873735389985
aF0.75768570169751626
aF1.645805556604975
aF1.1631508098056806
aF0.40546510810816438
aF0.40546510810816438
aF0.40546510810816438
aF0.69314718055994518
aF1.7072468383279658
aF2.3921972516837324
aF1.6990500711237873
aF1.4195647658761852
aF1.7299025346065522
aF1.9031950914125999
aF1.8099452422800886
aF1.3613455216975066
aF1.9077221297278155
aF1.9832377990861363
aF1.6284083069465514
aF1.9031950914125999
aF0.93217945984919837
aF0.81093021621632877
aF0.81093021621632877
aF0.89097292388986515
aF1.3154084265104808
aF1.3893760276572984
aF1.547981057833937
aF1.3217558399823193
aF0.79850769621777151
aF0.79850769621777151
aF0.79850769621777151
aF0.79850769621777151
aF2.2300784022072979
aF1.6784307839210517
aF1.4473190629576651
aF1.496109227127097
aF0.87546873735389985
aF0.69314718055994529
aF1.0090001299784226
aF0.77010822169607351
aF1.5448993912965292
aF2.2901625729954884
aF2.3309845675157432
aF1.3738718411213331
aF1.3862943611198904
aF0.58778666490211895
aF0.58778666490211895
aF0.81093021621632877
aF0.58778666490211895
aF0.58778666490211895
aF0.40546510810816438
aF0.18232155679395459
aF0.8517522107365838
aF0.40546510810816438
aF0.81093021621632877
aF0.40546510810816438
aF0.77010822169607351
aF0.58778666490211895
aF1.4632554022560189
aF0.58778666490211895
aF1.0944885714842478
aF1.0944885714842478
aF1.4046434997880872
aF1.2992829841302609
aF0.55526347319655911
aF0.40546510810816438
aF0.81093021621632877
aF0.37294191640260449
aF0.51082562376599072
aF0.55164761828624587
aF0.51082562376599072
aF0.51082562376599072
aF0.87010134940478046
aF0.87010134940478046
aF0.87010134940478046
aF0.87010134940478046
aF0.72349787521290509
aF0.84210361762075214
aF0.72349787521290509
aF0.95988665327713552
aF1.2172180310759564
aF1.2172180310759564
aF1.2172180310759564
aF1.0481417010320224
aF1.5575505088500881
aF1.5575505088500881
aF1.5575505088500881
aF1.8452325813018686
aF1.013953874547411
aF1.1297856900725332
aF1.0348964742820019
aF1.9996540577937338
aF1.7868885389934581
aF0.68827625032534856
aF1.0937413584335127
aF1.1143606456362485
aF1.2933563654606215
aF1.1800276801536183
aF1.2696398388433054
aF1.0464962875290957
aF1.0340737675305385
aF0.81093021621632877
aF0.81093021621632877
aF0.99325177301028333
aF0.65677953638907038
aF0.52324814376454787
aF0.8517522107365838
aF0.62860865942237409
aF0.8517522107365838
aF0.51082562376599061
aF0.86304621735534259
aF0.34092658697059319
aF0.48242614924429261
aF0.86304621735534259
aF0.44628710262841953
aF0.34092658697059319
aF0.5389965007326869
aF0.40546510810816438
aF0.58778666490211895
aF0.57536414490356169
aF0.58778666490211895
aF0.58778666490211895
aF0.52324814376454787
aF0.58778666490211895
aF1.1838721326189334
aF1.1838721326189334
aF1.1939224684724348
aF1.1838721326189334
aF0.40546510810816438
aF0.37294191640260449
aF0.40546510810816438
aF0.50077528791248938
aF0.6931471805599454
aF0.95265837604503012
aF1.6094379124341005
aF1.0986122886681096
aF0.69314718055994529
aF1.0577902941478545
aF0.83932969073802677
aF1.0296194171811583
aF1.6502599069543553
aF1.2572173188447482
aF0.95711272639441025
aF0.91629073187415511
aF1.791759469228055
aF1.0986122886681098
aF0.6931471805599454
aF0.83932969073802677
aF1.6094379124341003
aF0.51082562376599072
aF1.6094379124341003
aF0.51082562376599072
aF0.51082562376599072
aF1.2163953243244932
aF1.2163953243244932
aF1.6218604324326575
aF0.51082562376599061
aF0.62860865942237409
aF0.62860865942237409
aF0.91629073187415488
aF0.98082925301172597
aF0.40546510810816438
aF0.81093021621632877
aF0.40546510810816438
aF0.99325177301028333
aF0.95242977849002819
aF0.81093021621632866
aF0.81093021621632866
aF0.57536414490356169
aF0.40546510810816438
aF0.40546510810816438
aF0.40546510810816438
aF0.8183797703697725
aF0.8183797703697725
aF0.86967306475732298
aF1.0051556775131076
aF1.0850962652534824
aF0.61276265097229599
aF1.7634909407794193
aF0.78221774592041871
aF0.66405594535984647
aF1.0182277590804603
aF1.0695210534680109
aF0.66405594535984647
aF0.49247648509779407
aF0.89794159320595845
aF0.89794159320595845
aF0.89794159320595845
aF1.0378161843853368
aF1.443281292493501
aF1.443281292493501
aF1.443281292493501
aF0.44183275227903918
aF0.44628710262841953
aF0.28768207245178085
aF0.42121346507630342
aF0.28768207245178085
aF0.28768207245178085
aF0.40546510810816438
aF0.61660271930903343
aF0.86304621735534259
aF0.69314718055994518
aF1.2685113254635068
aF0.69314718055994518
aF0.94000725849147082
aF0.69314718055994518
aF0.58778666490211895
aF0.58778666490211895
aF0.62860865942237409
aF0.44628710262841953
aF0.69314718055994518
aF0.40546510810816438
aF3.032999833549662
aF2.6275347254414974
aF2.6275347254414974
aF2.6275347254414974
aF1.2685113254635068
aF1.2685113254635068
aF1.6739764335716711
aF1.3862943611198904
aF0.77788840901503575
aF1.1019381256376914
aF0.90386821187559785
aF0.81425605318591066
aF1.1507282898071234
aF1.1507282898071234
aF1.5561933979152878
aF1.5561933979152875
aF1.1019381256376914
aF1.1192315758708455
aF1.5246966839790099
aF1.0580188917028561
aF1.7338726220296474
aF2.53993190801138
aF1.7338726220296474
aF2.6501633539038028
aF0.99325177301028333
aF0.99325177301028333
aF0.99325177301028333
aF1.0986122886681098
aF0.90386821187559785
aF0.98082925301172597
aF0.90386821187559785
aF1.2403404484968108
aF3.0935411994478565
aF2.1329146537536499
aF1.9900579805451499
aF1.9900579805451499
aF1.6502599069543553
aF1.6502599069543553
aF1.2447947988461909
aF1.2447947988461909
aF0.69314718055994518
aF0.69314718055994518
aF0.8266785731844678
aF0.42121346507630342
aF0.57948786208742376
aF0.86716993453920455
aF0.57948786208742376
aF0.57948786208742376
aF0.80263141340163346
aF0.88964279039126315
aF0.80263141340163346
aF0.80263141340163346
aF0.71301925471194627
aF0.57948786208742376
aF0.86716993453920455
aF1.1548520069909853
aF0.7014459833746407
aF0.98912805582642149
aF0.88376754016859516
aF0.7014459833746407
aF0.57361261186475565
aF0.2859305394129748
aF0.50077528791248938
aF0.2859305394129748
aF0.86129468431653666
aF2.1610855307203463
aF0.68072466056138825
aF0.68072466056138825
aF1.8609809382700078
aF1.8609809382700078
aF1.573298865818227
aF1.7147984280919266
aF1.7376878638292015
aF0.80077784475231084
aF1.5265502526283325
aF2.2968870718794077
aF2.3783024633649164
aF1.9420656965899981
aF2.5606240201588708
aF1.760987810561301
aF0.81093021621632877
aF0.55961578793542277
aF0.40546510810816438
aF0.49247648509779407
aF2.0092049994276269
aF1.4495892114922042
aF1.6037398913194627
aF3.733825165818053
aF0.40546510810816438
aF0.40546510810816438
aF0.40546510810816438
aF0.58778666490211884
aF0.77010822169607351
aF0.77010822169607351
aF0.77010822169607351
aF0.77010822169607351
aF1.0986122886681093
aF0.99325177301028322
aF1.2163953243244929
aF1.0986122886681093
aF0.58778666490211884
aF0.58778666490211895
aF0.58778666490211884
aF0.69314718055994518
aF1.1631508098056806
aF1.1631508098056806
aF1.1631508098056806
aF1.3297240096314964
aF0.84554632734839774
aF0.86541840150039839
aF0.82492704014566187
aF0.86541840150039839
aF1.0420419371797154
aF0.88789125735245689
aF1.2696398388433052
aF1.3297240096314962
aF0.92871325187271203
aF0.94446160884085129
aF1.0577902941478545
aF0.80647586586694853
aF0.55961578793542277
aF0.36464311358790918
aF0.55961578793542277
aF0.40546510810816438
aF0.77010822169607351
aF0.77010822169607351
aF0.77010822169607351
aF0.77010822169607351
aF0.36464311358790918
aF0.40546510810816438
aF0.40546510810816438
aF0.40546510810816438
aF0.87546873735389985
aF0.62860865942237409
aF0.87546873735389985
aF0.62860865942237409
aF2.2912910863752867
aF1.7035044214731676
aF1.7035044214731678
aF1.5857213858167842
aF1.2039728043259357
aF1.0704414117014132
aF0.93691001907689087
aF1.1394342831883646
aF2.9393905196205981
aF2.9393905196205981
aF2.9393905196205981
aF2.9393905196205981
aF1.3625778345025745
aF1.3625778345025745
aF1.3625778345025745
aF1.3625778345025745
aF0.80296204656715187
aF0.57536414490356169
aF0.5263298103019558
aF0.62860865942237409
aF0.9242589015233319
aF1.5246966839790097
aF0.9242589015233319
aF0.9242589015233319
aF0.69760153090932553
aF0.47445797959511582
aF0.56555052345523715
aF0.47445797959511582
aF0.77764423858286191
aF0.70865136709591048
aF0.70865136709591048
aF0.70865136709591048
aF1.0296194171811581
aF1.2527629684953681
aF0.81912698342050727
aF1.0704414117014134
aF2.1000608288825715
aF2.1158091858507104
aF1.8689491079191844
aF1.5768126851180233
aF2.3671236141316161
aF0.97773201359714601
aF3.1749565909333657
aF1.6018863226701399
aF0.62860865942237409
aF0.51082562376599061
aF0.81093021621632877
aF0.81093021621632877
aF0.73119524819747517
aF0.73119524819747517
aF0.73119524819747517
aF0.73119524819747517
aF2.0529986995031049
aF1.3081355978254854
aF1.2673136033052301
aF1.607803957989786
aF0.7922675613585598
aF0.61890231658667627
aF0.95087259153519843
aF0.61890231658667627
aF0.61890231658667627
aF1.3015781972793261
aF1.0138961248275453
aF1.0138961248275453
aF0.30830135965451672
aF0.74193734472937733
aF0.58778666490211895
aF0.55961578793542277
aF0.69314718055994529
aF0.69314718055994529
aF1.0986122886681096
aF1.568615917913845
aF1.3656750739171548
aF0.80647586586694853
aF1.0986122886681096
aF1.2527629684953678
aF0.5389965007326869
aF1.3499267169490157
aF0.67252789335720942
aF0.5389965007326869
aF0.79850769621777151
aF0.91183638152477464
aF0.86304621735534259
aF1.1631508098056806
aF1.5404450409471488
aF1.0340737675305385
aF0.79850769621777151
aF0.95265837604503001
aF0.91629073187415488
aF0.91629073187415488
aF0.91629073187415488
aF1.2039728043259357
aF0.83932969073802677
aF0.73396917508020043
aF0.94469020639585322
aF1.7272209480904837
aF0.81093021621632877
aF0.81093021621632877
aF1.1755733298042379
aF0.81093021621632877
aF1.640209571100854
aF1.5993875765805989
aF1.7408871388542986
aF1.7817091333745536
aF0.86304621735534259
aF0.86304621735534259
aF0.95835639715966736
aF1.2460384696114482
aF1.1293839473348635
aF1.0340737675305385
aF1.0340737675305385
aF1.0340737675305385
aF0.69314718055994518
aF0.79850769621777151
aF0.69314718055994518
aF1.0986122886681096
aF0.79850769621777151
aF0.79850769621777151
aF1.0861897686695523
aF0.79850769621777151
aF1.1110348086666668
aF1.1110348086666668
aF0.98082925301172619
aF1.268511325463507
aF1.0986122886681096
aF0.96485229848858522
aF0.64103117942093135
aF0.92871325187271225
aF0.30830135965451672
aF0.40546510810816438
aF0.30830135965451672
aF0.55961578793542277
aF-0.87546873735389985
aF-0.74193734472937733
aF-0.74193734472937733
aF-0.58778666490211895
aF-0.98082925301172597
aF-1.0014485402144619
aF-0.44183275227903918
aF-0.84729786038720356
aF0.62415430907299385
aF0.84729786038720356
aF0.62415430907299385
aF0.62415430907299374
aF0.92871325187271225
aF0.92871325187271225
aF0.92871325187271225
aF0.81093021621632877
aF0.40546510810816438
aF0.52324814376454787
aF0.52324814376454787
aF0.52324814376454787
aF0.92871325187271225
aF0.81093021621632866
aF0.81093021621632877
aF0.81093021621632866
aF0.92871325187271225
aF2.1451085761972055
aF0.92871325187271225
aF1.2163953243244929
aF1.0340737675305385
aF1.0340737675305385
aF0.62860865942237409
aF0.81093021621632877
aF0.40546510810816438
aF0.47830243206043072
aF0.28768207245178085
aF0.57536414490356169
aF1.1394342831883648
aF0.28768207245178085
aF1.0986122886681096
aF0.69314718055994518
aF0.8517522107365838
aF1.0968607556293037
aF0.57361261186475565
aF0.69314718055994518
aF1.0014485402144619
aF1.0014485402144619
aF1.0967587200187869
aF1.0014485402144619
aF0.95835639715966758
aF0.98082925301172608
aF0.86304621735534259
aF1.1507282898071234
aF1.5485152462068426
aF0.64227485018618868
aF0.68309684470644394
aF0.68309684470644394
aF0.59608546771681437
aF0.38299225225610578
aF0.50077528791248938
aF1.076139432816051
aF1.5769147207285401
aF1.5769147207285401
aF4.9035232453996231
aF2.413312996600991
aF0.78845736036427017
aF1.0015505758249788
aF0.61855832356887286
aF0.78670582732546412
aF1.6419266706764648
aF1.9976128675042983
aF1.3681819368568706
aF1.205689903901547
aF1.5562954335258046
aF2.3978952727983702
aF1.5562954335258046
aF1.4609852537214796
aF1.2039728043259359
aF1.3217558399823193
aF1.4384103622589044
aF1.1270117631898076
aF1.1394342831883646
aF1.4033998290228296
aF1.3625778345025743
aF1.6265433803370393
aF1.167833757710063
aF1.167833757710063
aF1.6141208603384825
aF1.9018029327902632
aF0.9446902063958531
aF0.9446902063958531
aF0.9446902063958531
aF1.597015392435543
aF0.75768570169751648
aF0.54411160139945736
aF0.66189463705584073
aF0.50043653789679565
aF0.69232754570690114
aF0.62778902456932983
aF0.62778902456932983
aF0.62778902456932983
aF0.54411160139945736
aF0.49086708688064495
aF1.3113667541131246
aF0.89633219498880934
aF0.40546510810816438
aF0.47000362924573558
aF0.42632856574307387
aF0.47000362924573558
aF0.58778666490211895
aF0.8517522107365838
aF0.58778666490211895
aF0.62860865942237421
aF0.36464311358790918
aF0.65677953638907038
aF0.36464311358790918
aF0.47445797959511582
aF1.4395388756387029
aF1.0340737675305385
aF1.0340737675305385
aF1.0340737675305385
aF0.64435701639051313
aF0.64435701639051313
aF0.76214005204689661
aF0.64435701639051313
aF1.0340737675305385
aF1.2572173188447482
aF1.2572173188447482
aF1.1394342831883646
aF1.1394342831883648
aF0.73396917508020043
aF1.2572173188447482
aF1.1394342831883648
aF1.4508328822574614
aF1.045367774149297
aF1.045367774149297
aF1.045367774149297
aF1.2572173188447482
aF1.544899391296529
aF1.4395388756387029
aF1.2572173188447482
aF0.59608546771681437
aF1.1714496126203759
aF0.59608546771681437
aF0.81922901903102407
aF0.40546510810816438
aF0.69314718055994518
aF0.57536414490356169
aF0.50077528791248938
aF0.68309684470644394
aF0.68309684470644394
aF0.97077891715822484
aF0.68309684470644394
aF0.94706239054090879
aF1.2347444629926896
aF1.6626824269529126
aF0.94706239054090879
aF4.215641417178281
aF4.215641417178281
aF4.215641417178281
aF4.215641417178281
aF0.18232155679395459
aI0
aF0.40546510810816438
aF0.40546510810816438
aF1.0296194171811581
aF1.0296194171811581
aF1.2119409739751128
aF1.0296194171811581
aF4.1557858439450914
aF4.2972854062187906
aF4.2972854062187906
aF4.1557858439450914
aF1.9559604849088144
aF1.2264456601779945
aF0.93876358772621349
aF1.5549497271500303
aF0.92871325187271225
aF1.1802562777086198
aF0.87237149793931978
aF1.6833017141556483
aF1.0791346366201147
aF1.0791346366201147
aF1.0791346366201147
aF1.3202966934370026
aF1.3313252909984701
aF1.1490037342045154
aF1.1490037342045154
aF1.1490037342045154
aF0.74971753204833957
aF1.155182640156504
aF1.1788991667738198
aF0.60353502187025809
aF2.0532218848444015
aF2.6285860297479626
aF2.0532218848444015
aF2.0532218848444015
aF0.45953232937844019
aF0.45953232937844019
aF0.74721440183022103
aF0.45953232937844019
aF0.69592110744267055
aF1.1013862155508349
aF0.69592110744267055
aF0.69592110744267055
aF0.40546510810816438
aF0.95711272639441025
aF0.91629073187415511
aF0.51082562376599072
aF0.39304258810960718
aF0.28768207245178085
aF0.69314718055994518
aF0.69314718055994518
aF0.55164761828624587
aF0.58778666490211895
aF0.40546510810816438
aF0.40546510810816438
aF0.41366187531234311
aF0.81912698342050749
aF1.0704414117014132
aF1.3501553145040175
aF0.18187386544930451
aF0.12124924363286968
aF0.12124924363286968
aF0.12124924363286968
aF1.0859611711145507
aF1.0977956287615536
aF0.95242977849002808
aF1.1267831656348057
aF1.9665294362580492
aF1.9459101490553132
aF2.3719945443662134
aF1.5404450409471488
aF1.3248530793968998
aF0.98838084277568661
aF1.3656750739171546
aF1.3656750739171548
aF2.2905791528807047
aF3.3891914415488142
aF2.6960442609888688
aF3.2714084058924304
aF0.40546510810816438
aF0.40546510810816438
aF0.28768207245178085
aF0.18232155679395459
aF0.95711272639441014
aF1.2447947988461909
aF0.95711272639441014
aF0.95711272639441014
aF0.69314718055994518
aF0.69314718055994518
aF0.69314718055994518
aF0.98082925301172597
aF0.87546873735389996
aF0.81093021621632877
aF0.87546873735389996
aF1.0134544803278027
aF0.46648980994593897
aF0.56739597525438501
aF0.63990266604113311
aF0.60798937221963845
aF0.77788840901503575
aF1.1833535171232001
aF1.1099062952868683
aF1.1099062952868683
aF1.2365980316420124
aF0.94891595919023164
aF1.2853881958114446
aF0.94891595919023164
aF0.81093021621632877
aF1.3217558399823193
aF1.2163953243244929
aF1.6218604324326575
aF1.3705460041517514
aF1.8123787564307905
aF1.2163953243244932
aF2.2617630984737902
aF0.77010822169607351
aF0.77010822169607351
aF0.77010822169607351
aF1.0577902941478543
aF1.2039728043259357
aF1.4271163556401454
aF1.2039728043259357
aF1.2039728043259357
aF1.2163953243244929
aF1.4237905186705637
aF2.5212742939588746
aF1.4883290398081348
aF1.2809338454620642
aF1.2527629684953681
aF1.6706505966020897
aF0.58778666490211895
aF2.639057329615258
aF1.8937941479162994
aF1.1471738552825397
aF1.710344077742546
aF0.57536414490356169
aF0.74193734472937733
aF0.57536414490356169
aF0.74193734472937733
aF0.57536414490356169
aF1.2163953243244932
aF0.47000362924573547
aF0.28768207245178085
aF1.8278985158439278
aF1.0577902941478545
aF0.72928622717581837
aF1.1223288152854256
aF0.81093021621632877
aF0.65232518603969003
aF0.28768207245178085
aF0.28768207245178085
aF0.18232155679395459
aF0.40546510810816438
aF0.81093021621632877
aF0.28768207245178085
aF0.5389965007326869
aF0.40546510810816438
aF0.5389965007326869
aF0.26706278524904514
aF0.79850769621777151
aF0.98082925301172619
aF0.94446160884085129
aF2.2380465718564744
aF0.96508089604358716
aF0.96020996580899043
aF0.96508089604358716
aF0.55961578793542277
aF1.0059028905638421
aF0.96508089604358716
aF0.70889553752808443
aF0.42121346507630353
aF0.89794159320595845
aF0.89794159320595845
aF0.81093021621632877
aF0.55961578793542277
aF0.95005759434497228
aF1.6781001507555333
aF1.1856236656577392
aF1.4451348611428239
aF0.78015855754957486
aF0.66237552189319138
aF0.66237552189319138
aF0.66237552189319138
aF0.64662716492505246
aF0.53329847961804921
aF0.087011376989629699
aF0.49247648509779407
aF0.5247285289349819
aF0.63008904459280823
aF0.5247285289349819
aF0.5263298103019558
aF0.36772478012531717
aF0.28768207245178085
aF0.40546510810816438
aF0.57536414490356169
aF0.74787208024919172
aF0.56555052345523715
aF0.89097292388986515
aF0.89097292388986515
aF1.1533371883573562
aF1.5179803019452656
aF1.2586977040151823
aF1.1533371883573562
aF2.2490964080430591
aF2.4500038179103876
aF1.5872017709872182
aF2.044538709802223
aF3.4124913882809134
aF0.70889553752808432
aF0.69314718055994518
aF0.87546873735389985
aF1.8983561996241414
aF1.3263178916901615
aF1.1031743403759517
aF1.4551507635331298
aF2.8791854526358667
aF1.3720263893221856
aF1.0890428376519588
aF1.7160346428301867
aF1.0216512475319812
aF1.1394342831883648
aF0.95711272639441014
aF0.73396917508020043
aF0.85175221073658391
aF0.62860865942237409
aF0.62860865942237409
aF0.62860865942237409
aF2.6026896854443837
aF0.81093021621632877
aF0.81093021621632877
aF0.81093021621632877
aF1.0340737675305385
aF0.8517522107365838
aF1.2163953243244932
aF1.2245920915286717
aF1.5686159179138448
aF1.1631508098056806
aF1.5686159179138448
aF1.5686159179138448
aF1.1631508098056806
aF0.87546873735389974
aF1.1631508098056806
aF0.96248011434352942
aF1.1856236656577392
aF1.1856236656577392
aF1.1856236656577392
aF1.1856236656577392
aF0.83910109318302495
aF0.8571195986857032
aF0.96248011434352954
aF1.031472985830481
aF2.8903717578961645
aF1.5561933979152878
aF1.3862943611198904
aF1.3862943611198904
aF1.7917594692280547
aF1.7917594692280547
aF1.7917594692280547
aF1.9095425048844383
aF0.75881421507731472
aF0.75881421507731472
aF0.92871325187271214
aF0.87659725073369821
aF1.5040773967762739
aF1.7396434680890409
aF1.1642793231854791
aF1.1642793231854791
aF3.0440145754498742
aF1.2078172567912506
aF1.3413486494157731
aF1.1430501380986782
aF0.50077528791248938
aF0.34477103943590826
aF0.38299225225610578
aF0.19062035960864987
aF0.40546510810816438
aF0.55961578793542277
aF0.50077528791248938
aF0.40546510810816438
aF0.65492596773974765
aF0.96508089604358716
aF2.8784678533933401
aF1.3705460041517514
aF2.0081804224520181
aF1.2354714190558866
aF1.3930883068596314
aF2.1433939012595253
aF2.1034906022563433
aF0.82993686409190093
aF1.1176189365436817
aF1.1783130052159381
aF2.0727189435895887
aF1.6598737281838021
aF1.6980254941481783
aF1.7336459252683185
aF-1.2027291335606785
aF-1.2027291335606785
aF-1.2027291335606785
aF-1.2027291335606785
aF0.51082562376599072
aF0.91629073187415511
aF0.81093021621632877
aF0.40546510810816438
aF1.219721161294075
aF0.81425605318591066
aF0.68072466056138803
aF0.68072466056138825
aF1.7147984280919266
aF2.3434070875143007
aF1.0092287275334242
aF1.2323722788476339
aF1.0498221244986776
aF1.742969305058623
aF1.0498221244986776
aF1.455287232606842
aF1.3217558399823193
aF1.6094379124341001
aF1.9177392720886164
aF1.4803608701589577
aF1.7396434680890407
aF1.9752095394018079
aF2.0036090139235054
aF2.2391750852362726
aF1.2685113254635068
aF1.5040773967762737
aF1.5448993912965288
aF1.5040773967762737
aF1.585721385816784
aF1.585721385816784
aF1.585721385816784
aF1.585721385816784
aF1.1600535703911008
aF1.1600535703911008
aF1.5655186784992652
aF0.90873914211019469
aF0.55474485770082604
aF0.30830135965451672
aF0.55474485770082604
aF0.84242693015260683
aF0.69314718055994518
aF0.69314718055994518
aF1.3862943611198904
aF0.69314718055994518
aF1.0986122886681096
aF0.88366550455807835
aF0.69314718055994518
aF0.69314718055994518
aF1.0828639316999706
aF0.84729786038720356
aF0.55961578793542277
aF0.55961578793542277
aF0.34092658697059319
aF0.47445797959511576
aF0.62860865942237409
aF0.37729423114146809
aF0.87546873735389985
aF1.5246966839790097
aF1.9898293829901483
aF2.2222982148883355
aF0.75768570169751626
aF0.62860865942237409
aF0.70556970055850243
aF0.47000362924573547
aF1.5153714033950325
aF3.102221302591615
aF0.94000725849147082
aF0.95242977849002808
aF1.1507282898071234
aF1.7385149547092422
aF1.1507282898071234
aF2.7069216877224109
aF2.7069216877224109
aF1.7793369492294975
aF1.5561933979152878
aF1.6218604324326575
aF1.2163953243244932
aF1.3987168811184478
aF1.2163953243244932
aF1.2163953243244932
aF1.0059028905638423
aF1.0059028905638423
aF1.0059028905638423
aF1.0059028905638423
aF0.81093021621632877
aF0.40546510810816438
aF0.8517522107365838
aF0.40546510810816438
aF0.79850769621777151
aF0.62860865942237409
aF0.8517522107365838
aF0.62860865942237409
aF1.3454723665996353
aF1.3454723665996353
aF1.4632554022560187
aF1.3454723665996353
aF1.8734034582685652
aF1.4679383501604009
aF1.4679383501604009
aF0.96953524639296751
aF1.2774200261622675
aF0.92407091919311735
aF0.92407091919311735
aF0.92407091919311735
aF0.89257420525683917
aF0.98551220091610836
aF0.98551220091610836
aF1.0624732420522365
aF1.9705672067222126
aF0.79850769621777151
aF0.96953524639296751
aF1.1802562777086201
aF0.40546510810816438
aF0.40546510810816438
aF0.40546510810816438
aF0.40546510810816438
aF0.87546873735389985
aF0.87546873735389985
aF1.1631508098056806
aF0.87546873735389985
aF1.4430526949384994
aF1.9175106745336152
aF4.0330912628293234
aF1.7795249315597124
aF1.0748957620507937
aF1.0748957620507937
aF3.1022213025916159
aF1.2163953243244932
aF1.2674475201782891
aF1.10372738933488
aF0.86198241207012471
aF1.3082695146985441
aF0.62860865942237409
aF0.45140220329518999
aF0.44628710262841953
aF0.51082562376599061
aF-0.77075339913629182
aF-0.61660271930903343
aF-0.90428479176081433
aF-0.90428479176081433
aF0.79892427610298811
aF0.79892427610298811
aF0.79892427610298811
aF0.79892427610298811
aF1.0986122886681096
aF1.0986122886681096
aF1.0986122886681096
aF1.0986122886681096
aF1.3217558399823193
aF0.916290731874155
aF0.916290731874155
aF2.0149030205422642
aF1.0986122886681096
aF1.0986122886681096
aF1.0986122886681096
aF1.0986122886681096
aF2.1974531748912205
aF2.1974531748912205
aF2.5665506388285104
aF2.5665506388285104
aF0.40546510810816438
aF0.40546510810816438
aF0.8517522107365838
aF0.77010822169607351
aF0.40546510810816438
aF0.40546510810816438
aF0.40546510810816438
aF0.44628710262841953
aF0.40546510810816438
aF0.40546510810816438
aF0.62860865942237409
aF0.44628710262841953
aF0.44628710262841953
aF0.44628710262841953
aF0.8517522107365838
aF0.44628710262841953
aF1.3625778345025743
aF1.2729656758128871
aF1.2729656758128871
aF1.1394342831883646
aF0.57536414490356169
aF0.57536414490356169
aF0.57536414490356169
aF0.57536414490356169
aF1.0216512475319812
aF1.1551826401565037
aF1.3783261914707134
aF1.0216512475319812
aF0.81093021621632877
aF0.81093021621632877
aF0.81093021621632877
aF1.2163953243244932
aF0.78721368959901272
aF0.66943065394262935
aF0.98528360336110632
aF1.2572173188447482
aF1.2168119042097094
aF1.0626612243824511
aF1.2168119042097094
aF1.3705460041517514
aF2.4818094103734198
aF2.3970681819183293
aF2.6690018974019711
aF2.4866803406080167
aF1.3423751271850553
aF1.6218604324326573
aF1.2163953243244929
aF1.8325814637483095
aF0.67252789335720942
aF0.36464311358790918
aF0.36464311358790918
aF1.0371710069451188
aF0.73396917508020043
aF0.73396917508020043
aF0.77788840901503575
aF0.73396917508020043
aF0.62860865942237409
aF0.62860865942237409
aF0.91629073187415488
aF0.62860865942237409
aF1.2039728043259357
aF0.91629073187415488
aF0.91629073187415488
aF1.3217558399823193
aF0.98082925301172608
aF0.62860865942237409
aF0.40546510810816438
aF0.40546510810816438
aF0.70556970055850243
aF1.0577902941478545
aF0.53567066376310501
aF0.53567066376310501
aF0.81093021621632866
aF0.70556970055850243
aF0.67739882359180625
aF0.75881421507731484
aF1.1961926170069737
aF0.9695352463929674
aF1.200646967356354
aF1.3987168811184478
aF0.64435701639051324
aF0.94446160884085129
aF0.13353139262452257
aF0.78585657866421266
aF0.30830135965451672
aF0.54719326793686562
aF0.40546510810816438
aF0.72951482473082008
aF0.8517522107365838
aF0.8517522107365838
aF0.8517522107365838
aF0.8517522107365838
aF0.39304258810960718
aF0.40546510810816438
aF0.40546510810816438
aF0.10536051565782635
aF1.1755733298042379
aF1.9332590315017542
aF1.6863989535702284
aF0.77010822169607351
aF0.98082925301172597
aF0.62860865942237409
aF0.62860865942237409
aF0.62860865942237409
aF1.5040773967762739
aF1.5040773967762739
aF1.2163953243244932
aF1.2163953243244932
aF1.5277939233935898
aF1.6739764335716714
aF2.3150076129926029
aF0.40546510810816438
aF0.86791714758993954
aF0.86791714758993954
aF0.86791714758993954
aF0.86791714758993954
aF1.188224447357797
aF1.1882244473577968
aF0.96508089604358716
aF1.188224447357797
aF1.1157177565710488
aF1.1157177565710488
aF1.1157177565710488
aF1.2733822556981038
aF1.0340737675305385
aF1.0340737675305385
aF1.0340737675305385
aF1.188224447357797
aF0.40546510810816438
aF0.19062035960864987
aF0.45675840249571487
aF0.40546510810816438
aF0.74444047494749577
aF0.86222351060387925
aF0.45675840249571487
aF1.6607312068216507
aF0.50610047675200343
aF0.8561485732887556
aF0.52129692363328606
aF0.45480718236445294
aF1.3198046198510571
aF1.3324557374046164
aF1.2400696518322039
aF1.296910799985205
aF1.8687205103641831
aF1.6265027651122526
aF1.9219650248829956
aF0.84706926283220174
aF1.1518568031869219
aF1.1518568031869219
aF0.74639169507875758
aF0.74639169507875758
aF1.0986122886681096
aF1.5040773967762739
aF1.0986122886681096
aF1.0986122886681096
aF0.92871325187271225
aF0.92871325187271225
aF0.92871325187271225
aF0.92871325187271225
aF0.75768570169751626
aF0.57536414490356169
aF0.98082925301172597
aF0.75768570169751626
aF1.0577902941478545
aF0.75768570169751626
aF0.81093021621632877
aF1.4395388756387029
aF0.98082925301172597
aF1.4508328822574614
aF0.98082925301172597
aF0.98082925301172597
aF0.58778666490211895
aF0.58778666490211895
aF0.58778666490211895
aF0.58778666490211895
aF0.76028648339757399
aF0.60613580357031549
aF0.47260441094579309
aF0.3184537311185347
aF0.88376754016859516
aF0.88376754016859516
aF0.88376754016859516
aF0.88376754016859516
aF1.2974294154809378
aF1.2974294154809378
aF1.4898013081283936
aF1.2021192356766128
aF1.0787402145161087
aF0.92458953468885019
aF1.0787402145161087
aF1.1859542988232576
aF0.81401188275373682
aF0.70865136709591048
aF0.73544956025063435
aF0.70865136709591048
aF1.0231316327024151
aF0.73544956025063435
aF0.5531280034566799
aF0.36772478012531717
aF0.81425605318591066
aF1.1270117631898076
aF0.68072466056138803
aF0.68072466056138803
aF0.73544956025063435
aF0.99633343954769127
aF0.70865136709591048
aF0.70865136709591048
aF1.1507282898071234
aF0.57536414490356169
aF0.57536414490356169
aF0.81093021621632877
aF0.99325177301028333
aF1.0986122886681096
aF1.3987168811184478
aF2.574935388362904
aF0.40546510810816438
aF0.69314718055994518
aF0.71376646776268116
aF0.58778666490211895
aF2.1972245773362191
aF3.2714084058924304
aF2.4849066497879999
aF1.3862943611198904
aF2.132686056198648
aF2.5381511643068126
aF2.132686056198648
aF2.132686056198648
aF0.91141980163955849
aF1.0655704814668168
aF0.80605928598173215
aF1.235469518262214
aF0.62860865942237421
aF0.51082562376599072
aF0.51082562376599072
aF0.51082562376599072
aF1.7023759080933694
aF1.7023759080933694
aF1.7023759080933694
aF1.7023759080933694
aF1.1600535703911006
aF1.1600535703911006
aF1.1600535703911006
aF1.1600535703911006
aF0.81093021621632877
aF1.0014485402144619
aF1.4069136483226263
aF0.98082925301172597
aF0.57536414490356169
aF0.84729786038720356
aF0.96508089604358716
aF0.44183275227903918
aF1.3142042502183588
aF0.7545884622829363
aF1.1600535703911006
aF0.7545884622829363
aF0.68309684470644383
aF0.63245311188768905
aF0.99325177301028333
aF0.87546873735389985
aF0.62860865942237409
aF0.40361153945884165
aF0.40546510810816438
aF0.40546510810816438
aF0.44628710262841953
aF0.44628710262841953
aF0.44628710262841953
aF0.44628710262841953
aF1.7171706122369825
aF1.7171706122369825
aF1.0885619528146084
aF1.0885619528146084
aF1.2820623588418627
aF1.1642793231854791
aF1.5697444312936437
aF1.2820623588418627
aF0.57536414490356169
aF0.57536414490356169
aF1.726092434710685
aF0.57536414490356169
aF0.49840310376743358
aF1.0216512475319814
aF0.78608517621921437
aF2.7113760380717915
aF1.4384103622589042
aF0.40546510810816438
aF1.6218604324326575
aF0.42121346507630342
aF1.3578948865981926
aF1.3578948865981926
aF1.3578948865981926
aF1.5402164433921472
aF1.5402164433921472
aF1.1347513352839826
aF1.1347513352839826
aF1.5402164433921472
aF0.72951482473082008
aF1.4838746894587544
aF0.99325177301028333
aF0.89608802455663572
aF1.1755733298042379
aF0.99325177301028333
aF0.99325177301028333
aF1.3987168811184478
aF0.40546510810816438
aF0.40546510810816438
aF0.69314718055994518
aF0.69314718055994518
aF0.5389965007326869
aF0.40546510810816438
aF0.69314718055994518
aF0.40546510810816438
aF1.2347444629926896
aF1.2347444629926896
aF1.2347444629926896
aF1.2347444629926896
aF1.3499267169490157
aF1.6376087894007965
aF1.3499267169490157
aF1.3499267169490157
aF1.2713643944459134
aF1.0986122886681096
aF1.1000926738385439
aF0.86589928633774926
aF0.8553819787871626
aF0.69677694861052386
aF1.1022420567186884
aF0.69677694861052386
aF0.33213383502261462
aF0.088903525141667591
aF0.44991687067899816
aF0.44991687067899816
aF0.44991687067899816
aF0.40546510810816438
aF0.40546510810816438
aF0.40546510810816438
aF0.90386821187559796
aF0.69314718055994518
aF0.69314718055994518
aF0.79850769621777151
aF0.40546510810816438
aF0.81093021621632877
aF0.81093021621632877
aF0.40546510810816438
aF0.81093021621632877
aF0.81093021621632877
aF1.0340737675305385
aF0.81093021621632877
aF0.79850769621777151
aF0.39304258810960718
aF0.57536414490356169
aF1.0986122886681096
aF0.62860865942237409
aF1.0340737675305385
aF0.62860865942237409
aF1.4803608701589579
aF0.9526583760450299
aF0.9526583760450299
aF0.9526583760450299
aF0.9526583760450299
aF0.71376646776268116
aF0.71376646776268116
aF0.71376646776268116
aF0.71376646776268116
aF0.62860865942237409
aF0.8517522107365838
aF0.55961578793542277
aF0.44628710262841953
aF0.62860865942237409
aF0.62860865942237409
aF0.62860865942237409
aF0.62860865942237409
aF0.40546510810816438
aF0.51082562376599061
aF0.22314355131420976
aF0.40546510810816438
aF0.66943065394262935
aF0.22314355131420976
aF0.40546510810816438
aF0.81093021621632877
aF0.916290731874155
aF0.51082562376599061
aF0.916290731874155
aF1.4916548767777167
aF0.67067432470788657
aF0.50077528791248938
aF1.076139432816051
aF0.67067432470788657
aF1.5606477482646681
aF1.3173014896329391
aF1.2935849630156231
aF1.2935849630156231
aF1.8041819892266122
aF2.1972245773362191
aF1.9095425048844383
aF1.6863989535702284
aF1.0700248318161969
aF0.93649343919167438
aF1.0700248318161969
aF1.2931683831304066
aF1.2891306126662427
aF1.4714521694601972
aF1.065987061352033
aF1.1837700970084166
aF1.2891306126662427
aF2.1000608288825715
aF1.2891306126662427
aF1.4714521694601972
aF0.58778666490211895
aF0.40546510810816438
aF0.58778666490211895
aF0.5469646703818638
aF0.77010822169607351
aF0.77010822169607351
aF0.77010822169607351
aF0.91160778396977293
aF0.916290731874155
aF1.2039728043259357
aF0.916290731874155
aF0.916290731874155
aF0.81093021621632877
aF0.81093021621632877
aF0.81093021621632877
aF1.0986122886681096
aF0.70144598337464048
aF0.70144598337464048
aF1.2768101282782021
aF0.70144598337464048
aF1.3862943611198904
aF0.81093021621632877
aF0.81093021621632877
aF0.81093021621632877
aF0.69314718055994518
aF0.98082925301172597
aF1.6739764335716711
aF0.81093021621632877
aF2.8382557567571514
aF1.2163953243244932
aF1.2163953243244932
aF0.81093021621632877
aF0.8517522107365838
aF0.8517522107365838
aF0.8517522107365838
aF0.8517522107365838
aF0.40546510810816438
aF0.40546510810816438
aF0.81093021621632877
aF0.40546510810816438
aF1.6218604324326575
aF1.2163953243244932
aF1.2163953243244932
aF1.2163953243244932
aF1.0748957620507935
aF1.0748957620507935
aF1.2572173188447482
aF1.0748957620507935
aF1.0340737675305385
aF2.4327906486489863
aF0.8517522107365838
aF2.2628916118535889
aF2.2178438645389553
aF1.1642793231854791
aF2.4214966420302275
aF3.2437208648653151
aF0.9249040789635502
aF1.4639005796962368
aF0.9249040789635502
aF5.1772944406417691
aF1.172641914938662
aF0.80799880135075286
aF0.66649923907705344
aF1.0719643471852178
aF0.66943065394262935
aF0.66943065394262935
aF2.2333636239520924
aF0.81093021621632866
aF0.71376646776268116
aF4.0590386753766605
aF1.3297240096314962
aF0.86791714758993943
aF1.4395388756387029
aF0.99325177301028333
aF1.4395388756387029
aF1.4395388756387029
aF0.78275933924963248
aF1.2163953243244932
aF1.0340737675305385
aF1.2163953243244932
aF0.5389965007326869
aF0.67252789335720942
aF0.67252789335720942
aF0.76214005204689672
aF2.3232043801967812
aF1.5655186784992647
aF5.579576362615656
aF2.376448894715594
aF0.55961578793542277
aF0.84729786038720356
aF0.6931471805599454
aF0.55961578793542277
aF0.52324814376454787
aF0.57536414490356169
aF0.52324814376454787
aF0.81093021621632877
aF0.69314718055994518
aF0.69314718055994518
aF0.69314718055994518
aF0.73396917508020043
aF2.2096470973347766
aF1.3987168811184478
aF1.3987168811184478
aF1.6863989535702286
aF1.3169708564674207
aF1.7224359645755849
aF2.7640613218700842
aF1.9758325590608155
aF1.3173014896329391
aF1.4043128666225688
aF1.47330573810952
aF1.5866344234165233
aF1.5265502526283325
aF1.3679452224516939
aF1.0802631499999131
aF1.0802631499999131
aF0.6058051704047972
aF1.0112702785129617
aF1.0112702785129617
aF1.4167353866211261
aF0.62860865942237409
aF0.69314718055994518
aF0.62860865942237409
aF0.79850769621777151
aF0.69314718055994518
aF0.98082925301172608
aF1.3341783599808765
aF0.69314718055994518
aF0.70556970055850232
aF0.70556970055850232
aF0.70556970055850232
aF1.1631508098056804
aF0.69314718055994518
aF1.0986122886681096
aF1.0986122886681096
aF0.69314718055994518
aF0.98082925301172608
aF0.98082925301172608
aF0.98082925301172608
aF1.3862943611198904
aF0.91629073187415488
aF0.94000725849147093
aF0.79850769621777151
aF0.91629073187415488
aF1.7159269414717251
aF0.78721368959901283
aF1.7272209480904834
aF1.3738718411213331
aF0.36464311358790918
aF0.58778666490211895
aF0.58778666490211895
aF0.65232518603969003
aF1.1354659595800223
aF1.2932543298501049
aF1.0783075457400737
aF2.3250035245588978
aF0.86791714758993954
aF1.1192315758708455
aF1.6788473638062682
aF0.96508089604358716
aF1.1265752485657528
aF0.72111014045758848
aF1.5309501786905066
aF0.89794159320595845
aF0.59598343210629756
aF0.65314184594624614
aF0.59598343210629756
aF0.88366550455807835
aF0.78275933924963248
aF0.55961578793542277
aF0.79974391095603192
aF1.0216512475319812
aF0.94446160884085129
aF0.94446160884085129
aF0.94446160884085129
aF1.2163953243244932
aF1.1349799328389845
aF0.88366550455807846
aF0.88366550455807846
aF1.2891306126662427
aF1.4794047662322023
aF0.91978897829677964
aF1.0169527267504272
aF0.61148761864226286
aF1.3170728920779373
aF1.8924370369814991
aF1.3170728920779373
aF1.3170728920779373
aF1.1394342831883648
aF0.85175221073658391
aF1.2572173188447482
aF1.2572173188447482
aF1.1223288152854256
aF0.89257420525683906
aF1.4987737977656421
aF0.94000725849147093
aF0.92340965286208043
aF1.105731209656035
aF1.1365028683227889
aF0.77185975473487967
aF0.73396917508020043
aF0.73396917508020043
aF1.0340737675305385
aF0.73396917508020043
aF2.075887107155252
aF2.0794415416798353
aF2.4813522152634162
aF1.9865035460205669
aF0.916290731874155
aF0.62860865942237409
aF0.62860865942237409
aF0.916290731874155
aF1.2980393133650034
aF1.0340737675305385
aF1.0340737675305385
aF0.81093021621632877
aF0.99325177301028333
aF1.2163953243244932
aF0.81093021621632877
aF0.81093021621632877
aF0.98082925301172608
aF0.81093021621632877
aF1.2809338454620642
aF0.98082925301172608
aF1.8858259782671225
aF1.9503644994046934
aF1.4803608701589581
aF1.7680429426107389
aF0.69314718055994518
aF0.69314718055994518
aF0.69314718055994518
aF1.5040773967762739
aF1.7540191412452075
aF2.4879883163254082
aF1.1409146683587987
aF1.2209573760323351
aF0.73544956025063435
aF0.73544956025063435
aF0.73544956025063435
aF0.73544956025063435
aF1.3862943611198904
aF1.9095425048844383
aF1.3862943611198904
aF1.5040773967762739
aF1.6834094155141099
aF1.8375600953413684
aF2.4142969240569023
aF1.8375600953413684
aF0.7215466550816434
aF0.90386821187559785
aF0.68072466056138803
aF0.61618613942381706
aF1.2447947988461912
aF0.91629073187415511
aF1.0216512475319814
aF0.31608154697347907
aF0.86304621735534259
aF1.1270117631898078
aF2.4285648958546076
aF1.3254982568371176
aF0.96840673301316893
aF1.4916548767777169
aF2.120263536200091
aF1.1270117631898078
aF1.4186754180037933
aF1.2964380319980295
aF1.1298648321722138
aF0.72439972406404973
aF2.1468175589226406
aF2.2206813606441891
aF2.6432675095324649
aF1.530631419498824
aF3.1081560381114302
aF1.2081829842431422
aF1.2150226405125206
aF2.2282329504081497
aF2.0057501494113303
aF2.131729952271892
aF1.9363406980391624
aF1.2229908101616978
aF1.4430526949384996
aF1.8528701177855276
aF1.4430526949384996
aF1.8528701177855276
aF0.67739882359180603
aF0.57536414490356169
aF0.57536414490356169
aF0.98082925301172597
aF1.2594874673792875
aF1.4575573811413809
aF1.105336787552029
aF1.4575573811413809
aF0.66464567042773071
aF0.59750636759010201
aF1.1799256445431017
aF0.66464567042773071
aF1.1281402765696058
aF1.2980393133650034
aF1.0748957620507935
aF1.6502599069543553
aF0.82358133376988762
aF0.82358133376988762
aF1.3217558399823195
aF1.0748957620507935
aF0.60043778245567792
aF0.60043778245567792
aF0.72951482473082008
aF0.60043778245567792
aF0.78275933924963248
aF1.2572173188447482
aF0.664976303593249
aF0.664976303593249
aF0.58778666490211895
aF0.58778666490211895
aF0.47000362924573547
aF0.75768570169751626
aF0.99325177301028333
aF1.045367774149297
aF1.4100108877372062
aF0.94000725849147093
aF0.40546510810816438
aF0.40546510810816438
aF0.69314718055994518
aF0.47000362924573547
aF1.0704414117014134
aF0.40546510810816438
aF0.44183275227903918
aF1.0704414117014134
aF0.84242693015260683
aF1.207070043740516
aF0.97595832277712935
aF1.0655704814668165
aF1.6863989535702286
aF1.5040773967762739
aF0.87546873735389985
aF1.568615917913845
aF1.0296194171811583
aF1.1349799328389845
aF1.0296194171811583
aF1.3173014896329389
aF1.3499267169490157
aF1.6691055033370745
aF1.126783165634806
aF1.2809338454620642
aF0.66943065394262935
aF1.4271163556401456
aF1.0340737675305385
aF1.0340737675305385
aF0.40546510810816438
aF0.43795386635052891
aF0.52324814376454787
aF0.58778666490211895
aF0.79850769621777151
aF0.51082562376599061
aF0.69314718055994518
aF0.51082562376599061
aF0.40546510810816438
aF0.81093021621632877
aF0.40546510810816438
aF0.81093021621632877
aF1.4632554022560187
aF1.2163953243244932
aF2.7850112422383382
aF1.6218604324326575
aF0.81093021621632866
aF0.81093021621632866
aF1.2163953243244932
aF0.81093021621632866
aF1.2163953243244932
aF1.2163953243244932
aF1.6218604324326575
aF1.2163953243244932
aF1.5040773967762739
aF2.7519694350370454
aF1.3862943611198904
aF0.98082925301172597
aF2.3671236141316165
aF1.1019381256376914
aF1.2686133610740238
aF1.9095425048844383
aF1.455287232606842
aF1.1451323043030026
aF1.455287232606842
aF1.1451323043030026
aF0.86304621735534259
aF1.268511325463507
aF0.86304621735534259
aF0.86304621735534259
aF1.0216512475319812
aF0.94706239054090879
aF0.54159728243274441
aF0.79850769621777151
aF1.2163953243244932
aF1.2163953243244932
aF1.6218604324326575
aF1.2163953243244932
aF2.0636931847116964
aF1.565518678499265
aF0.93691001907689087
aF1.5167285143298328
aF2.1772504675737019
aF2.2462433390606527
aF2.582715575681866
aF2.4975577673415588
aF1.3217558399823193
aF1.1157177565710488
aF0.89257420525683906
aF0.95711272639441014
aF0.78275933924963259
aF0.80647586586694842
aF0.40546510810816438
aF0.44183275227903918
aF0.55961578793542277
aF0.37729423114146809
aF0.40546510810816438
aF1.188224447357797
aF1.2891306126662427
aF1.2891306126662427
aF1.8123787564307907
aF1.8123787564307905
aF2.4001654213329093
aF2.1282317058492675
aF1.9177392720886168
aF1.905088154535058
aF1.0090001299784224
aF0.8266785731844678
aF0.8266785731844678
aF1.1913216867723768
aF1.0498221244986774
aF0.95242977849002808
aF0.60353502187025798
aF0.69314718055994518
aF0.87546873735389985
aF1.0986122886681096
aF0.87546873735389985
aF1.5040773967762739
aF1.6376087894007965
aF1.6376087894007965
aF1.2321436812926321
aF1.4020427180880293
aF1.3987168811184476
aF0.77010822169607351
aF0.47000362924573547
aF0.65232518603969003
aF0.87546873735389985
aF1.0986122886681096
aF0.69314718055994518
aF0.69314718055994518
aF0.86304621735534259
aF0.86304621735534259
aF1.4384103622589042
aF0.86304621735534259
aF1.6626824269529126
aF1.6626824269529126
aF2.3558296075128577
aF2.068147535061077
aF1.545127988851531
aF1.7274495456454857
aF1.545127988851531
aF3.2191044224232019
aF0.8914456918770407
aF0.79850769621777151
aF0.79850769621777151
aF0.79850769621777151
aF0.77033681925107544
aF1.4271163556401458
aF0.61618613942381706
aF2.1972245773362196
aF0.80670446342195024
aF0.92448749907833383
aF1.0298480147361602
aF1.617634679638279
aF0.81093021621632877
aF0.81093021621632877
aF0.40546510810816438
aF0.81093021621632877
aF1.3862943611198904
aF1.0986122886681096
aF1.0986122886681096
aF1.5040773967762739
aF0.40546510810816438
aF0.81093021621632877
aF0.40546510810816438
aF0.62860865942237409
aF1.3217558399823193
aF1.3217558399823193
aF1.0340737675305385
aF1.3341783599808765
aF0.75768570169751637
aF0.75768570169751637
aF0.75768570169751637
aF1.1631508098056806
aF1.6863989535702288
aF1.3217558399823195
aF0.94000725849147115
aF0.94000725849147115
aF1.3454723665996353
aF1.3454723665996353
aF1.7509374747077997
aF1.3454723665996353
aF1.004545779629042
aF1.3217558399823193
aF1.4100108877372064
aF1.5561933979152878
aF1.6910819014746103
aF2.4645159601402655
aF2.2300784022072975
aF1.6910819014746103
aF0.97327766324776588
aF0.56781255513960138
aF0.86791714758993954
aF1.3787427713559302
aF1.0779930014653738
aF0.67252789335720942
aF0.98528360336110632
aF1.127428343075024
aF0.51082562376599072
aF0.51082562376599072
aF0.51082562376599072
aF0.79850769621777151
aF0.81093021621632877
aF1.2163953243244932
aF0.81093021621632877
aF0.81093021621632877
aF1.3862943611198904
aF2.0794415416798357
aF1.268511325463507
aF0.69314718055994518
aF1.5153714033950327
aF1.5561933979152875
aF2.0794415416798357
aF1.9208365115031969
aF2.0794415416798357
aF2.0794415416798357
aF2.0794415416798357
aF3.0081547935525483
aF1.3458889464848516
aF0.98124583289694267
aF0.98124583289694267
aF0.98124583289694267
aF0.98124583289694267
aF0.61660271930903343
aF0.6729444732424259
aF0.90428479176081433
aF1.1755733298042379
aF1.1724760903896576
aF0.94933253907544812
aF1.290259126046041
aF1.3625778345025745
aF1.4803608701589579
aF1.2084271546753163
aF1.3625778345025745
aF1.7385149547092422
aF0.98082925301172597
aF0.87546873735389985
aF0.58778666490211895
aF0.85175221073658391
aF0.85175221073658391
aF1.0748957620507937
aF1.2980393133650034
aF0.57649265828336016
aF0.41788762810672153
aF0.81093021621632877
aF0.75881421507731484
aF1.3862943611198906
aF1.0986122886681096
aF1.0986122886681096
aF1.3862943611198906
aF0.45870962262697668
aF0.9049967252553961
aF0.45870962262697668
aF0.45870962262697668
aF0.83165153902958133
aF0.83165153902958111
aF0.83165153902958111
aF0.96518293165410385
aF0.3184537311185347
aF0.50077528791248938
aF0.095310179804324935
aF0.40546510810816438
aF0.86750056770472295
aF1.1926787977071769
aF1.1394342831883648
aF0.79850769621777151
aF1.2080965215097978
aF0.98495297019558814
aF1.0802631499999131
aF0.98495297019558814
aF1.5775246186126057
aF1.5775246186126057
aF1.7316752984398642
aF1.5775246186126057
aF0.81093021621632866
aF0.81093021621632866
aF1.2163953243244929
aF0.81093021621632866
aF0.76214005204689672
aF0.35667494393873234
aF0.40546510810816438
aF1.054276474848058
aF0.40546510810816438
aF0.40546510810816438
aF0.40546510810816438
aF0.57536414490356169
aF1.4271163556401456
aF0.62860865942237409
aF1.1394342831883646
aF1.4395388756387029
aF0.40546510810816438
aF0.44628710262841953
aF0.28768207245178085
aF0.28768207245178085
aF1.2039728043259359
aF0.81093021621632877
aF0.79850769621777151
aF1.3011365527795835
aF0.61618613942381706
aF0.61618613942381706
aF0.61618613942381706
aF0.87546873735389985
aF1.2163953243244932
aF0.61618613942381706
aF0.51082562376599072
aF1.7274495456454855
aF0.95711272639441025
aF0.95711272639441014
aF0.95711272639441014
aF0.91629073187415511
aF0.62860865942237409
aF0.83932969073802677
aF0.62860865942237409
aF0.62860865942237409
aF0.56531380905006046
aF0.57361261186475565
aF0.56531380905006046
aF0.56531380905006046
aF0.56531380905006046
aF0.59908067152087796
aF0.59908067152087796
aF0.59908067152087796
aF0.70556970055850254
aF0.53454215038330666
aF0.46825209620692942
aF0.47000362924573558
aF1.076139432816051
aF0.85299588150184136
aF0.85299588150184136
aF0.94830606130616624
aF0.8799230877032802
aF0.8799230877032802
aF0.8799230877032802
aF1.2853881958114446
aF2.9638189797324963
aF2.5583538716243317
aF2.9638189797324963
aF2.5583538716243317
aF1.3104618333635605
aF1.7159269414717249
aF1.3104618333635605
aF1.7159269414717249
aF0.77010822169607351
aF0.58778666490211895
aF0.887891257352457
aF0.887891257352457
aF0.22314355131420976
aF0.69314718055994518
aF1.0340737675305385
aF0.28768207245178085
aF1.0748957620507935
aF2.0557250150625195
aF1.0748957620507935
aF1.0748957620507935
aF0.57536414490356169
aF1.0986122886681096
aF0.91629073187415488
aF0.62860865942237409
aF3.2425923514855164
aF3.2425923514855164
aF3.753417975251506
aF4.2766661190160544
aF1.8640781776845878
aF3.5269892021925018
aF1.8640781776845878
aF1.9694386933424142
aF1.0902275391337166
aF1.3779096115854974
aF1.0902275391337166
aF1.0902275391337166
aF0.76546588901647872
aF0.47778381656469782
aF0.47778381656469782
aF0.57536414490356169
aF2.7564237853864246
aF1.6622658470676963
aF2.1810596404828635
aF1.7755945323746993
aF1.2163953243244932
aF0.86304621735534259
aF1.7035044214731678
aF1.4803608701589579
aF1.0748957620507935
aF0.62860865942237409
aF0.62860865942237409
aF0.62860865942237409
aF1.2163953243244932
aF1.2163953243244932
aF1.2163953243244932
aF2.0273255405408221
aF2.3025850929940455
aF1.5561933979152875
aF1.3862943611198904
aF1.8325814637483098
aF1.0340737675305385
aF1.0340737675305385
aF1.1518568031869219
aF1.0340737675305385
aF0.86417473073514106
aF0.74639169507875758
aF0.74639169507875758
aF0.74639169507875758
aF1.3341783599808765
aF0.99770612335966358
aF0.92871325187271225
aF0.92871325187271214
aF0.83113292353384804
aF1.066698994846615
aF0.83113292353384804
aF0.83113292353384804
aF1.896891387330879
aF1.9865035460205664
aF1.896891387330879
aF2.3023564954390432
aF0.8266785731844678
aF1.3217558399823193
aF1.0986122886681096
aF1.3217558399823193
aF2.8415815937267324
aF2.3307559699607419
aF3.3524072174927229
aF2.3715779644809971
aF0.98528360336110632
aF1.5810384379124023
aF0.99325177301028322
aF3.5314029373170954
aF0.78585657866421255
aF0.78585657866421255
aF0.90363961432059614
aF0.78585657866421266
aF0.90363961432059592
aF0.90363961432059592
aF0.61595754186881524
aF0.90363961432059592
aF0.58778666490211895
aF0.58778666490211895
aF0.40546510810816438
aF0.89567144467141935
aF0.28768207245178085
aF0.30010459245033805
aF0.30010459245033805
aF0.11778303565638346
aF0.81093021621632877
aF0.81093021621632877
aF0.98495297019558814
aF0.81093021621632877
aF1.6558077607198058
aF1.8099584405470643
aF1.6558077607198058
aF1.6558077607198058
aF0.68627251432683856
aF0.68627251432683856
aF0.68627251432683856
aF0.62173399318926759
aF0.58778666490211895
aF0.57948786208742376
aF0.62860865942237409
aF0.55961578793542277
aF2.8382557567571514
aF0.81093021621632877
aF0.81093021621632877
aF1.2163953243244932
aF0.40546510810816438
aF0.81093021621632877
aF1.2163953243244932
aF1.2163953243244929
aF0.40546510810816438
aF0.55961578793542277
aF1.2163953243244932
aF0.40546510810816438
aF1.1600535703911006
aF1.188224447357797
aF1.1600535703911006
aF1.1600535703911006
aF0.45733693881500448
aF0.86280204692316886
aF0.45733693881500448
aF0.45733693881500448
aF0.86280204692316886
aF1.3483098627048695
aF0.61148761864226286
aF0.94284475459670525
aF1.3217558399823193
aF1.3217558399823193
aF1.3217558399823193
aF1.7272209480904837
aF1.1349799328389845
aF1.2950653481860572
aF1.1349799328389845
aF1.1349799328389845
aF1.0673597451640053
aF0.88503818837005066
aF0.88503818837005066
aF0.88503818837005066
aF0.87546873735389985
aF0.52129692363328595
aF0.52129692363328595
aF0.92676203174145033
aF0.97715347727785606
aF0.71318793144339121
aF0.97715347727785629
aF0.81577452021849217
aF0.84980099060532188
aF0.53848460553432553
aF0.98762477714515151
aF1.18795365069319
aF1.6122118393168257
aF1.1013862155508349
aF1.6130345460682887
aF1.0069031266265511
aF0.69314718055994518
aF0.62943136617383744
aF0.84242693015260683
aF0.72951482473082008
aF0.49589997354931498
aF0.69314718055994518
aF0.34174929372205665
aF0.69314718055994518
aF0.97035795314443085
aF0.97035795314443085
aF1.1935015044586403
aF0.97035795314443085
aF0.65540685257709796
aF0.81093021621632877
aF0.72951482473082008
aF0.57536414490356169
aF2.7627751007914565
aF1.4663370687934267
aF2.2772672850097555
aF1.8718021769015911
aF0.55961578793542277
aF0.55961578793542277
aF0.71376646776268116
aF0.55961578793542277
aF0.60191816762611194
aF0.60191816762611194
aF0.60191816762611194
aF0.83017681960709233
aF0.96347961467661303
aF0.96347961467661303
aF0.96347961467661303
aF1.3689447227847773
aF0.83302988858949867
aF1.1429325296109891
aF0.61660271930903343
aF0.61660271930903343
aF0.62860865942237409
aF0.81093021621632866
aF0.81093021621632866
aF1.0986122886681096
aF0.91467387763000907
aF1.1251663113906598
aF0.91467387763000907
aF0.91467387763000907
aF0.40546510810816438
aF0.62860865942237409
aF0.5469646703818638
aF0.77010822169607351
aF1.4395388756387029
aF1.4395388756387029
aF1.4395388756387029
aF1.4395388756387029
aF1.0340737675305385
aF0.58778666490211895
aF1.8041819892266122
aF1.3987168811184478
aF0.81093021621632877
aF1.0340737675305385
aF1.6218604324326575
aF0.81093021621632877
aF0.40546510810816438
aF0.5469646703818638
aF0.40546510810816438
aF0.65232518603969003
aF0.28768207245178085
aF0.40546510810816438
aF0.28768207245178085
aF0.40546510810816438
aF0.69314718055994518
aF0.40546510810816438
aF0.81093021621632877
aF0.40546510810816438
aF1.4271163556401456
aF1.1394342831883648
aF1.1394342831883648
aF1.4271163556401456
aF1.8982484982656795
aF1.4927833901575152
aF1.0873182820493508
aF1.1518568031869221
aF2.5381511643068126
aF4.277794632395854
aF2.5381511643068126
aF2.9436162724149764
aF1.7804654626092959
aF1.1518568031869221
aF0.74639169507875769
aF1.3750003545011316
aF1.5040773967762737
aF0.67739882359180625
aF1.3705460041517512
aF0.79518185924818974
aF0.44776748779885356
aF0.67091103911306327
aF0.44776748779885356
aF0.44776748779885356
aF0.5469646703818638
aF0.69314718055994518
aF0.8517522107365838
aF0.69314718055994518
aF1.0386358192383804
aF0.98651981809936662
aF0.98651981809936662
aF1.0386358192383807
aF0.69314718055994518
aF0.51082562376599061
aF0.98082925301172608
aF0.69314718055994518
aF0.22314355131420976
aF0.62860865942237409
aF0.79850769621777151
aF0.44628710262841953
aF0.40546510810816438
aF0.40546510810816438
aF0.40546510810816438
aI0
aF0.69314718055994518
aF0.40546510810816438
aF0.57536414490356169
aF0.28768207245178085
aF0.40546510810816438
aF0.28768207245178085
aF0.57536414490356169
aF0.69314718055994518
aF1.2163953243244932
aF1.2163953243244932
aF1.2163953243244932
aF1.2163953243244932
aF0.40546510810816438
aF0.69314718055994518
aF1.0986122886681096
aF0.69314718055994518
aF0.40546510810816438
aF0.40546510810816438
aF0.40546510810816438
aF0.40546510810816438
aF0.62860865942237409
aF0.85175221073658391
aF0.62860865942237409
aF0.44628710262841953
aF0.40546510810816438
aF0.2859305394129748
aF0.40546510810816438
aF0.69139564752113936
aF0.67252789335720942
aF0.67252789335720942
aF0.67252789335720942
aF0.67252789335720942
aF1.2442869365726421
aF0.76598450451221156
aF0.76598450451221156
aF0.57536414490356169
aF1.6533571463689354
aF0.67252789335720942
aF0.67252789335720942
aF1.0779930014653738
aF0.85175221073658391
aF1.0748957620507937
aF1.0748957620507937
aF1.2572173188447482
aF0.40546510810816438
aF0.81093021621632877
aF0.40546510810816438
aF0.44628710262841953
aF0.95242977849002808
aF1.0577902941478545
aF0.98082925301172608
aF1.240111850941809
aF1.2527629684953678
aF1.2527629684953678
aF1.6582280766035322
aF1.2527629684953678
aF0.99325177301028333
aF0.99325177301028333
aF0.99325177301028333
aF1.2809338454620642
aF0.79850769621777151
aF0.79850769621777151
aF1.2039728043259359
aF0.79850769621777151
aF0.62860865942237409
aF0.62860865942237409
aF0.69314718055994518
aF0.62860865942237409
aF0.887891257352457
aF0.887891257352457
aF0.92871325187271225
aF1.1110348086666668
aF0.99325177301028333
aF1.1474024528375417
aF0.62415430907299374
aF0.62415430907299374
aF1.4838746894587549
aF1.4759065198095775
aF1.4759065198095775
aF1.4759065198095775
aF1.0986122886681096
aF1.6739764335716711
aF1.0986122886681096
aF1.0986122886681096
aF0.98082925301172608
aF0.98082925301172608
aF0.98082925301172608
aF1.6094379124341001
aF1.5501647436351318
aF1.5501647436351318
aF1.9556298517432962
aF1.9556298517432962
aF0.89794159320595845
aF1.7088718094222872
aF0.89794159320595845
aF0.89794159320595845
aF0.67252789335720942
aF0.69314718055994518
aF0.55961578793542277
aF0.98082925301172597
aF2.1551589120507066
aF1.3442286958343779
aF1.7496938039425423
aF1.5673722471485876
aF1.5934609579109595
aF2.5221742097836719
aF0.887891257352457
aF1.3578948865981926
aF0.81505393340019072
aF0.81505393340019072
aF1.1027360058519715
aF0.81505393340019072
aF0.84882079587100812
aF0.98495297019558814
aF0.45165449057753893
aF1.8828945634015466
aF0.64402638322499484
aF0.75351061606668313
aF0.76180941888137843
aF0.76180941888137832
aF1.6945957207744069
aF3.4413074426878278
aF2.3232043801967808
aF2.1364284730534462
aF1.6945957207744069
aF1.5892352051165808
aF1.7635885922613586
aF1.4069136483226261
aF1.8532007509510455
aF1.5404450409471488
aF1.4069136483226261
aF1.4069136483226261
aF0.87546873735389985
aF0.58778666490211895
aF0.58778666490211895
aF0.58778666490211895
aF0.70353626642914002
aF0.62349355875560364
aF1.028958666863768
aF0.71458610261572497
aF0.79648983496558134
aF1.60877716211671
aF0.72577240787602182
aF0.88448513941112217
aF0.75702495138012615
aF0.75702495138012615
aF0.75702495138012615
aF0.75702495138012615
aF1.0134544803278027
aF1.0824473518147542
aF1.0824473518147542
aF1.4879124599229185
aF0.75768570169751626
aF0.57536414490356169
aF0.57536414490356169
aF0.75768570169751626
aF0.98082925301172608
aF0.57536414490356169
aF0.98082925301172597
aF0.69314718055994518
aF0.57536414490356169
aF0.57536414490356169
aF0.69314718055994518
aF0.57536414490356169
aF1.0220678274171979
aF1.0220678274171977
aF1.0220678274171977
aF1.0220678274171979
aF0.40546510810816438
aF0.22314355131420976
aF0.28768207245178085
aF0.28768207245178085
aF0.85175221073658391
aF0.81093021621632877
aF0.69314718055994518
aF1.0748957620507935
aF0.98082925301172608
aF0.91629073187415488
aF2.3263016196113613
aF0.98082925301172608
aF0.40546510810816438
aF0.40546510810816438
aF0.40546510810816438
aF0.40546510810816438
aF0.40546510810816438
aF0.81093021621632877
aF0.40546510810816438
aF0.58778666490211895
aF1.2321436812926321
aF1.3656750739171546
aF1.2321436812926321
aF1.6296406197516196
aF0.40546510810816438
aF0.42121346507630342
aF0.40546510810816438
aF0.40546510810816438
aF1.0986122886681098
aF0.94446160884085129
aF0.94446160884085129
aF0.94446160884085129
aF0.8799230877032802
aF1.0340737675305385
aF1.0134544803278027
aF1.2321436812926319
aF0.70889553752808432
aF0.70889553752808432
aF0.8266785731844678
aF0.70889553752808432
aF0.52324814376454787
aF0.5389965007326869
aF0.40546510810816438
aF0.55961578793542277
aF1.0986122886681098
aF0.82667857318446769
aF0.81093021621632877
aF0.59598343210629767
aF0.63193449639195609
aF0.63193449639195609
aF1.442864712608285
aF0.73729501204978243
aF2.2207531216233205
aF2.1768338876884852
aF1.799539656547017
aF1.9173226922034003
aF0.93203908884229403
aF1.3375041969504584
aF0.93203908884229403
aF0.93203908884229403
aF0.64435701639051324
aF1.941267816375718
aF0.44961293959800158
aF1.1960046346767592
aF0.34870677428955554
aF1.5163119344446165
aF0.47033426241125398
aF0.75417188239771993
aF1.1514402233017056
aF1.3055909031289639
aF1.3055909031289639
aF1.1514402233017056
aF1.6749169646212552
aF0.79053952656859483
aF0.87950650781806383
aF1.0294314348509435
aF0.50077528791248938
aF0.50077528791248938
aF0.71149631922814205
aF0.50077528791248938
aF1.3945931639345859
aF1.3862943611198904
aF1.4381661918267306
aF1.2840155119994723
aF1.56472891513516
aF1.56472891513516
aF1.56472891513516
aF1.56472891513516
aF1.2145417556751703
aF1.0967587200187869
aF0.80907664756700615
aF0.80907664756700615
aF1.4256015370065163
aF1.6079230938004709
aF1.7132836094582971
aF1.4256015370065163
aF0.7595392703468391
aF2.854729168994814
aF1.6068371307340426
aF1.3349034152504009
aF0.86829844791900301
aF0.86829844791900301
aF0.75051541226261964
aF0.96773234490718985
aF1.8060355578759346
aF1.6259841496165193
aF1.2512907001751088
aF1.4744342514893185
aF0.75051541226261964
aF0.96773234490718985
aF0.86829844791900301
aF0.86829844791900301
aF0.44183275227903929
aF0.40546510810816438
aF0.37729423114146809
aF0.37729423114146809
aF0.14637049250829615
aF0.50304543644702848
aF0.50304543644702848
aF0.20294084399669041
aF0.7625566319321132
aF0.69356376044516166
aF0.69356376044516166
aF0.91670731175937148
aF0.55825867700062271
aF0.73748299437999698
aF0.45425527227759643
aF1.2689279053487232
aF1.3495960837834973
aF1.1548520069909853
aF0.93170845567677563
aF1.0257749647158432
aF1.5673722471485878
aF0.98495297019558814
aF1.7834606664133594
aF0.93876358772621349
aF0.44628710262841953
aF0.36464311358790918
aF0.5469646703818638
aF0.40546510810816438
aF0.62860865942237409
aF0.71562003641200378
aF0.66943065394262935
aF1.2039728043259357
aF1.0580188917028563
aF0.90386821187559785
aF1.3093333199837622
aF0.90386821187559785
aF1.5122741639804524
aF1.5122741639804527
aF1.3093333199837622
aF1.3093333199837622
aF1.8452325813018688
aF2.0355223077450004
aF1.1476310503925435
aF1.1476310503925435
aF0.61618613942381706
aF0.61618613942381706
aF0.43386458262986244
aF0.47000362924573558
aF0.64103117942093135
aF0.85175221073658391
aF0.77456257204545387
aF0.64103117942093135
aF0.98528360336110632
aF0.98528360336110632
aF0.98528360336110632
aF0.98528360336110632
aF0.58551651636757984
aF0.58551651636757984
aF0.6818531739411865
aF0.76474083374695412
aF1.4294885397852013
aF0.95948491053946605
aF1.1418064673334205
aF1.0464962875290957
aF1.167605160155061
aF1.6138922627834804
aF2.1109382556161136
aF1.3375041969504582
aF1.3862943611198904
aF1.2492491491955713
aF1.8168331067801708
aF1.0986122886681096
aF1.1301090026043876
aF1.9410392188207164
aF0.86304621735534282
aF1.1301090026043878
aF1.6941791408891906
aF1.7099274978573296
aF1.3532525539185973
aF1.576396105232807
aF1.3453703309891185
aF1.3453703309891185
aF1.5685138823033282
aF1.571194541832692
aF0.46170482643104022
aF0.37469344944141053
aF0.1740227539792594
aF0.39716630529346914
aF0.69727089774380724
aF1.2726350426473687
aF0.69727089774380724
aF0.69727089774380724
aF0.48417768228309882
aF0.46170482643104022
aF0.37469344944141053
aF0.1740227539792594
aF2.4365330655037845
aF1.5768126851180235
aF1.7070182407729644
aF2.1124833488811285
aF1.7715567619105355
aF1.7070182407729644
aF1.5246966839790097
aF2.0434904773941773
aF1.3862943611198904
aF1.0340737675305385
aF1.3217558399823193
aF1.0340737675305385
aF2.3356269001953383
aF1.268511325463507
aF2.0843124719144326
aF1.5768126851180235
aF1.7875337164336762
aF2.100060828882572
aF2.5496737684805728
aF4.2691145292520947
aF1.7183122473917229
aF1.6863989535702284
aF1.6455769590499736
aF1.4100108877372064
aF1.1995184539765555
aF1.0371710069451188
aF1.0371710069451188
aF1.2194925637390732
aF1.4069136483226263
aF1.9459101490553132
aF3.4976491966212215
aF1.565518678499265
aF1.2163953243244932
aF1.2163953243244932
aF1.2163953243244932
aF1.4271163556401458
aF0.81093021621632877
aF1.4803608701589579
aF0.81093021621632877
aF0.81093021621632877
aF0.61618613942381706
aF0.81093021621632877
aF0.81093021621632877
aF0.81093021621632877
aF0.73396917508020043
aF0.83932969073802677
aF0.73396917508020043
aF1.3217558399823193
aF0.5753641449035618
aF0.90363961432059614
aF0.65232518603969003
aF0.76214005204689661
aF0.94446160884085129
aF0.58778666490211895
aF0.99325177301028333
aF0.94446160884085129
aF1.2842596824316459
aF1.2842596824316459
aF1.2842596824316459
aF1.2842596824316459
aF1.0986122886681096
aF1.6218604324326575
aF0.81093021621632877
aF0.5389965007326869
aF1.3656750739171546
aF2.1766052901334838
aF1.4834581095735382
aF1.771140182025319
aF1.3862943611198908
aF1.7305467850600655
aF1.2685113254635072
aF1.556193397915288
aF0.57981849525294216
aF1.1394342831883646
aF1.0986122886681096
aF1.0986122886681096
aF2.189485005242044
aF2.2821944033463115
aF2.2821944033463115
aF2.3230163978665663
aF1.1493338513563873
aF1.072372810220259
aF1.507236893183205
aF1.3624913717692297
aF1.0472213427986201
aF0.78015855754957486
aF0.78015855754957486
aF1.0472213427986201
aF1.9404562983728488
aF1.1419486021550775
aF1.3426192976172286
aF1.652774225921068
aF1.7767361675294397
aF1.7767361675294397
aF1.6432047749049172
aF1.6432047749049172
aF1.1507282898071234
aF1.1507282898071234
aF2.6039333562096405
aF1.1507282898071234
aF2.2137201473550929
aF2.2137201473550929
aF1.962405719074187
aF1.9905765960408834
aF2.7935386426080342
aF1.363821505267832
aF1.1814999484738773
aF1.1814999484738773
aF0.99325177301028333
aF0.94000725849147093
aF0.74763536584401491
aF2.1001628644930883
aF0.90386821187559785
aF0.90386821187559785
aF0.90386821187559785
aF0.79850769621777151
aF0.96840673301316893
aF1.1507282898071234
aF1.2039728043259357
aF1.1915502843273786
aF2.5778446454472692
aF1.7793369492294975
aF1.9616585060234519
aF1.4916548767777167
aF1.8201589437497527
aF4.3867095825782636
aF4.0990275101264828
aF1.5324768712979719
aF1.3217558399823193
aF1.3217558399823193
aF1.7272209480904837
aF1.7272209480904837
aF1.8325814637483098
aF1.5040773967762739
aF1.3217558399823193
aF2.2504690918550314
aF1.2809338454620642
aF3.1904763503465032
aF1.5040773967762739
aF2.0918640616783932
aF0.87546873735389985
aF0.87546873735389985
aF0.87546873735389985
aF1.2809338454620642
aF1.7396434680890411
aF0.64103117942093135
aF0.82335273621488592
aF2.132686056198648
aF2.1533053434013838
aF2.9436162724149773
aF3.3355303471447848
aF1.8971199848858811
aF2.9350382048817338
aF3.8231580597891925
aF4.4592162733650111
aF2.8059611626065921
aF1.3200043069435135
aF1.7254694150516778
aF1.3200043069435135
aF1.9486129663658873
a.